ccopy_reg
_reconstructor
p0
(cnltk.classify.naivebayes
NaiveBayesClassifier
p1
c__builtin__
object
p2
Ntp3
Rp4
(dp5
S'_labels'
p6
(lp7
S'1'
p8
aS'-1'
p9
asS'_feature_probdist'
p10
(dp11
(g8
Vcontains(not_dem)
p12
tp13
g0
(cnltk.probability
ELEProbDist
p14
g2
Ntp15
Rp16
(dp17
S'_gamma'
p18
F0.5
sS'_N'
p19
I52
sS'_freqdist'
p20
cnltk.probability
FreqDist
p21
((dp22
I00
I51
sI01
I1
stp23
Rp24
sS'_bins'
p25
I2
sS'_divisor'
p26
F53.0
sbs(g9
Vcontains(muslim)
p27
tp28
g0
(g14
g2
Ntp29
Rp30
(dp31
g18
F0.5
sg19
I46
sg20
g21
((dp32
I00
I45
sI01
I1
stp33
Rp34
sg25
I2
sg26
F47.0
sbs(g8
Vcontains(bravo)
p35
tp36
g0
(g14
g2
Ntp37
Rp38
(dp39
g18
F0.5
sg19
I52
sg20
g21
((dp40
I00
I51
sI01
I1
stp41
Rp42
sg25
I2
sg26
F53.0
sbs(g9
Vcontains(govern)
p43
tp44
g0
(g14
g2
Ntp45
Rp46
(dp47
g18
F0.5
sg19
I46
sg20
g21
((dp48
I00
I44
sI01
I2
stp49
Rp50
sg25
I2
sg26
F47.0
sbs(g8
Vcontains(free)
p51
tp52
g0
(g14
g2
Ntp53
Rp54
(dp55
g18
F0.5
sg19
I52
sg20
g21
((dp56
I00
I51
sI01
I1
stp57
Rp58
sg25
I2
sg26
F53.0
sbs(g9
Vcontains(not_dec)
p59
tp60
g0
(g14
g2
Ntp61
Rp62
(dp63
g18
F0.5
sg19
I46
sg20
g21
((dp64
I00
I46
stp65
Rp66
sg25
I2
sg26
F47.0
sbs(g8
Vcontains(vot)
p67
tp68
g0
(g14
g2
Ntp69
Rp70
(dp71
g18
F0.5
sg19
I52
sg20
g21
((dp72
I00
I51
sI01
I1
stp73
Rp74
sg25
I2
sg26
F53.0
sbs(g9
Vcontains(scheme)
p75
tp76
g0
(g14
g2
Ntp77
Rp78
(dp79
g18
F0.5
sg19
I46
sg20
g21
((dp80
I00
I45
sI01
I1
stp81
Rp82
sg25
I2
sg26
F47.0
sbs(g9
Vcontains(careless)
p83
tp84
g0
(g14
g2
Ntp85
Rp86
(dp87
g18
F0.5
sg19
I46
sg20
g21
((dp88
I00
I46
stp89
Rp90
sg25
I2
sg26
F47.0
sbs(g8
Vcontains(read)
p91
tp92
g0
(g14
g2
Ntp93
Rp94
(dp95
g18
F0.5
sg19
I52
sg20
g21
((dp96
I00
I51
sI01
I1
stp97
Rp98
sg25
I2
sg26
F53.0
sbs(g9
Vcontains(monsanto)
p99
tp100
g0
(g14
g2
Ntp101
Rp102
(dp103
g18
F0.5
sg19
I46
sg20
g21
((dp104
I00
I45
sI01
I1
stp105
Rp106
sg25
I2
sg26
F47.0
sbs(g9
Vcontains(hope)
p107
tp108
g0
(g14
g2
Ntp109
Rp110
(dp111
g18
F0.5
sg19
I46
sg20
g21
((dp112
I00
I45
sI01
I1
stp113
Rp114
sg25
I2
sg26
F47.0
sbs(g9
Vcontains(destroy)
p115
tp116
g0
(g14
g2
Ntp117
Rp118
(dp119
g18
F0.5
sg19
I46
sg20
g21
((dp120
I00
I45
sI01
I1
stp121
Rp122
sg25
I2
sg26
F47.0
sbs(g9
Vcontains(seek)
p123
tp124
g0
(g14
g2
Ntp125
Rp126
(dp127
g18
F0.5
sg19
I46
sg20
g21
((dp128
I00
I46
stp129
Rp130
sg25
I2
sg26
F47.0
sbs(g8
Vcontains(occup)
p131
tp132
g0
(g14
g2
Ntp133
Rp134
(dp135
g18
F0.5
sg19
I52
sg20
g21
((dp136
I00
I51
sI01
I1
stp137
Rp138
sg25
I2
sg26
F53.0
sbs(g8
Vcontains(arrest)
p139
tp140
g0
(g14
g2
Ntp141
Rp142
(dp143
g18
F0.5
sg19
I52
sg20
g21
((dp144
I00
I52
stp145
Rp146
sg25
I2
sg26
F53.0
sbs(g8
Vcontains(devil)
p147
tp148
g0
(g14
g2
Ntp149
Rp150
(dp151
g18
F0.5
sg19
I52
sg20
g21
((dp152
I00
I52
stp153
Rp154
sg25
I2
sg26
F53.0
sbs(g9
Vcontains(hypocrisi)
p155
tp156
g0
(g14
g2
Ntp157
Rp158
(dp159
g18
F0.5
sg19
I46
sg20
g21
((dp160
I00
I45
sI01
I1
stp161
Rp162
sg25
I2
sg26
F47.0
sbs(g8
Vcontains(men)
p163
tp164
g0
(g14
g2
Ntp165
Rp166
(dp167
g18
F0.5
sg19
I52
sg20
g21
((dp168
I00
I51
sI01
I1
stp169
Rp170
sg25
I2
sg26
F53.0
sbs(g8
Vcontains(shoot)
p171
tp172
g0
(g14
g2
Ntp173
Rp174
(dp175
g18
F0.5
sg19
I52
sg20
g21
((dp176
I00
I52
stp177
Rp178
sg25
I2
sg26
F53.0
sbs(g8
Vcontains(anyth)
p179
tp180
g0
(g14
g2
Ntp181
Rp182
(dp183
g18
F0.5
sg19
I52
sg20
g21
((dp184
I00
I52
stp185
Rp186
sg25
I2
sg26
F53.0
sbs(g9
Vcontains(alreadi)
p187
tp188
g0
(g14
g2
Ntp189
Rp190
(dp191
g18
F0.5
sg19
I46
sg20
g21
((dp192
I00
I46
stp193
Rp194
sg25
I2
sg26
F47.0
sbs(g8
Vcontains(attorney)
p195
tp196
g0
(g14
g2
Ntp197
Rp198
(dp199
g18
F0.5
sg19
I52
sg20
g21
((dp200
I00
I51
sI01
I1
stp201
Rp202
sg25
I2
sg26
F53.0
sbs(g8
Vcontains(central)
p203
tp204
g0
(g14
g2
Ntp205
Rp206
(dp207
g18
F0.5
sg19
I52
sg20
g21
((dp208
I00
I52
stp209
Rp210
sg25
I2
sg26
F53.0
sbs(g8
Vcontains(complet)
p211
tp212
g0
(g14
g2
Ntp213
Rp214
(dp215
g18
F0.5
sg19
I52
sg20
g21
((dp216
I00
I52
stp217
Rp218
sg25
I2
sg26
F53.0
sbs(g8
Vcontains(monster)
p219
tp220
g0
(g14
g2
Ntp221
Rp222
(dp223
g18
F0.5
sg19
I52
sg20
g21
((dp224
I00
I51
sI01
I1
stp225
Rp226
sg25
I2
sg26
F53.0
sbs(g8
Vcontains(bag)
p227
tp228
g0
(g14
g2
Ntp229
Rp230
(dp231
g18
F0.5
sg19
I52
sg20
g21
((dp232
I00
I51
sI01
I1
stp233
Rp234
sg25
I2
sg26
F53.0
sbs(g9
Vcontains(handgun)
p235
tp236
g0
(g14
g2
Ntp237
Rp238
(dp239
g18
F0.5
sg19
I46
sg20
g21
((dp240
I00
I45
sI01
I1
stp241
Rp242
sg25
I2
sg26
F47.0
sbs(g9
Vcontains(not_mob)
p243
tp244
g0
(g14
g2
Ntp245
Rp246
(dp247
g18
F0.5
sg19
I46
sg20
g21
((dp248
I00
I46
stp249
Rp250
sg25
I2
sg26
F47.0
sbs(g9
Vcontains(street)
p251
tp252
g0
(g14
g2
Ntp253
Rp254
(dp255
g18
F0.5
sg19
I46
sg20
g21
((dp256
I00
I45
sI01
I1
stp257
Rp258
sg25
I2
sg26
F47.0
sbs(g8
Vcontains(not_charg)
p259
tp260
g0
(g14
g2
Ntp261
Rp262
(dp263
g18
F0.5
sg19
I52
sg20
g21
((dp264
I00
I52
stp265
Rp266
sg25
I2
sg26
F53.0
sbs(g9
Vcontains(pm)
p267
tp268
g0
(g14
g2
Ntp269
Rp270
(dp271
g18
F0.5
sg19
I46
sg20
g21
((dp272
I00
I46
stp273
Rp274
sg25
I2
sg26
F47.0
sbs(g9
Vcontains(wake)
p275
tp276
g0
(g14
g2
Ntp277
Rp278
(dp279
g18
F0.5
sg19
I46
sg20
g21
((dp280
I00
I46
stp281
Rp282
sg25
I2
sg26
F47.0
sbs(g8
Vcontains(be)
p283
tp284
g0
(g14
g2
Ntp285
Rp286
(dp287
g18
F0.5
sg19
I52
sg20
g21
((dp288
I00
I51
sI01
I1
stp289
Rp290
sg25
I2
sg26
F53.0
sbs(g9
Vcontains(stupid)
p291
tp292
g0
(g14
g2
Ntp293
Rp294
(dp295
g18
F0.5
sg19
I46
sg20
g21
((dp296
I00
I45
sI01
I1
stp297
Rp298
sg25
I2
sg26
F47.0
sbs(g8
Vcontains(life)
p299
tp300
g0
(g14
g2
Ntp301
Rp302
(dp303
g18
F0.5
sg19
I52
sg20
g21
((dp304
I00
I51
sI01
I1
stp305
Rp306
sg25
I2
sg26
F53.0
sbs(g8
Vcontains(clinton)
p307
tp308
g0
(g14
g2
Ntp309
Rp310
(dp311
g18
F0.5
sg19
I52
sg20
g21
((dp312
I00
I31
sI01
I21
stp313
Rp314
sg25
I2
sg26
F53.0
sbs(g8
Vcontains(hq)
p315
tp316
g0
(g14
g2
Ntp317
Rp318
(dp319
g18
F0.5
sg19
I52
sg20
g21
((dp320
I00
I51
sI01
I1
stp321
Rp322
sg25
I2
sg26
F53.0
sbs(g8
Vcontains(economist)
p323
tp324
g0
(g14
g2
Ntp325
Rp326
(dp327
g18
F0.5
sg19
I52
sg20
g21
((dp328
I00
I52
stp329
Rp330
sg25
I2
sg26
F53.0
sbs(g9
Vcontains(creat)
p331
tp332
g0
(g14
g2
Ntp333
Rp334
(dp335
g18
F0.5
sg19
I46
sg20
g21
((dp336
I00
I45
sI01
I1
stp337
Rp338
sg25
I2
sg26
F47.0
sbs(g9
Vcontains(not_eld)
p339
tp340
g0
(g14
g2
Ntp341
Rp342
(dp343
g18
F0.5
sg19
I46
sg20
g21
((dp344
I00
I46
stp345
Rp346
sg25
I2
sg26
F47.0
sbs(g9
Vcontains(sexism)
p347
tp348
g0
(g14
g2
Ntp349
Rp350
(dp351
g18
F0.5
sg19
I46
sg20
g21
((dp352
I00
I45
sI01
I1
stp353
Rp354
sg25
I2
sg26
F47.0
sbs(g8
Vcontains(prevent)
p355
tp356
g0
(g14
g2
Ntp357
Rp358
(dp359
g18
F0.5
sg19
I52
sg20
g21
((dp360
I00
I52
stp361
Rp362
sg25
I2
sg26
F53.0
sbs(g8
Vcontains(effort)
p363
tp364
g0
(g14
g2
Ntp365
Rp366
(dp367
g18
F0.5
sg19
I52
sg20
g21
((dp368
I00
I52
stp369
Rp370
sg25
I2
sg26
F53.0
sbs(g9
Vcontains(there)
p371
tp372
g0
(g14
g2
Ntp373
Rp374
(dp375
g18
F0.5
sg19
I46
sg20
g21
((dp376
I00
I46
stp377
Rp378
sg25
I2
sg26
F47.0
sbs(g8
Vcontains(chariti)
p379
tp380
g0
(g14
g2
Ntp381
Rp382
(dp383
g18
F0.5
sg19
I52
sg20
g21
((dp384
I00
I51
sI01
I1
stp385
Rp386
sg25
I2
sg26
F53.0
sbs(g9
Vcontains(breitbart)
p387
tp388
g0
(g14
g2
Ntp389
Rp390
(dp391
g18
F0.5
sg19
I46
sg20
g21
((dp392
I00
I46
stp393
Rp394
sg25
I2
sg26
F47.0
sbs(g8
Vcontains(juri)
p395
tp396
g0
(g14
g2
Ntp397
Rp398
(dp399
g18
F0.5
sg19
I52
sg20
g21
((dp400
I00
I52
stp401
Rp402
sg25
I2
sg26
F53.0
sbs(g8
Vcontains(major)
p403
tp404
g0
(g14
g2
Ntp405
Rp406
(dp407
g18
F0.5
sg19
I52
sg20
g21
((dp408
I00
I51
sI01
I1
stp409
Rp410
sg25
I2
sg26
F53.0
sbs(g8
Vcontains(email)
p411
tp412
g0
(g14
g2
Ntp413
Rp414
(dp415
g18
F0.5
sg19
I52
sg20
g21
((dp416
I00
I52
stp417
Rp418
sg25
I2
sg26
F53.0
sbs(g8
Vcontains(crimin)
p419
tp420
g0
(g14
g2
Ntp421
Rp422
(dp423
g18
F0.5
sg19
I52
sg20
g21
((dp424
I00
I51
sI01
I1
stp425
Rp426
sg25
I2
sg26
F53.0
sbs(g9
Vcontains(state)
p427
tp428
g0
(g14
g2
Ntp429
Rp430
(dp431
g18
F0.5
sg19
I46
sg20
g21
((dp432
I00
I46
stp433
Rp434
sg25
I2
sg26
F47.0
sbs(g9
Vcontains(purpos)
p435
tp436
g0
(g14
g2
Ntp437
Rp438
(dp439
g18
F0.5
sg19
I46
sg20
g21
((dp440
I00
I45
sI01
I1
stp441
Rp442
sg25
I2
sg26
F47.0
sbs(g9
Vcontains(fbi)
p443
tp444
g0
(g14
g2
Ntp445
Rp446
(dp447
g18
F0.5
sg19
I46
sg20
g21
((dp448
I00
I45
sI01
I1
stp449
Rp450
sg25
I2
sg26
F47.0
sbs(g8
Vcontains(lol)
p451
tp452
g0
(g14
g2
Ntp453
Rp454
(dp455
g18
F0.5
sg19
I52
sg20
g21
((dp456
I00
I51
sI01
I1
stp457
Rp458
sg25
I2
sg26
F53.0
sbs(g9
Vcontains(say)
p459
tp460
g0
(g14
g2
Ntp461
Rp462
(dp463
g18
F0.5
sg19
I46
sg20
g21
((dp464
I00
I45
sI01
I1
stp465
Rp466
sg25
I2
sg26
F47.0
sbs(g9
Vcontains(full)
p467
tp468
g0
(g14
g2
Ntp469
Rp470
(dp471
g18
F0.5
sg19
I46
sg20
g21
((dp472
I00
I46
stp473
Rp474
sg25
I2
sg26
F47.0
sbs(g8
Vcontains(took)
p475
tp476
g0
(g14
g2
Ntp477
Rp478
(dp479
g18
F0.5
sg19
I52
sg20
g21
((dp480
I00
I52
stp481
Rp482
sg25
I2
sg26
F53.0
sbs(g9
Vcontains(h)
p483
tp484
g0
(g14
g2
Ntp485
Rp486
(dp487
g18
F0.5
sg19
I46
sg20
g21
((dp488
I00
I45
sI01
I1
stp489
Rp490
sg25
I2
sg26
F47.0
sbs(g8
Vcontains(not_email)
p491
tp492
g0
(g14
g2
Ntp493
Rp494
(dp495
g18
F0.5
sg19
I52
sg20
g21
((dp496
I00
I51
sI01
I1
stp497
Rp498
sg25
I2
sg26
F53.0
sbs(g9
Vcontains(not_afford)
p499
tp500
g0
(g14
g2
Ntp501
Rp502
(dp503
g18
F0.5
sg19
I46
sg20
g21
((dp504
I00
I45
sI01
I1
stp505
Rp506
sg25
I2
sg26
F47.0
sbs(g9
Vcontains(gowdi)
p507
tp508
g0
(g14
g2
Ntp509
Rp510
(dp511
g18
F0.5
sg19
I46
sg20
g21
((dp512
I00
I45
sI01
I1
stp513
Rp514
sg25
I2
sg26
F47.0
sbs(g9
Vcontains(daddi)
p515
tp516
g0
(g14
g2
Ntp517
Rp518
(dp519
g18
F0.5
sg19
I46
sg20
g21
((dp520
I00
I45
sI01
I1
stp521
Rp522
sg25
I2
sg26
F47.0
sbs(g8
Vcontains(know)
p523
tp524
g0
(g14
g2
Ntp525
Rp526
(dp527
g18
F0.5
sg19
I52
sg20
g21
((dp528
I00
I51
sI01
I1
stp529
Rp530
sg25
I2
sg26
F53.0
sbs(g9
Vcontains(attorney)
p531
tp532
g0
(g14
g2
Ntp533
Rp534
(dp535
g18
F0.5
sg19
I46
sg20
g21
((dp536
I00
I46
stp537
Rp538
sg25
I2
sg26
F47.0
sbs(g8
Vcontains(hypocrisi)
p539
tp540
g0
(g14
g2
Ntp541
Rp542
(dp543
g18
F0.5
sg19
I52
sg20
g21
((dp544
I00
I52
stp545
Rp546
sg25
I2
sg26
F53.0
sbs(g9
Vcontains(support)
p547
tp548
g0
(g14
g2
Ntp549
Rp550
(dp551
g18
F0.5
sg19
I46
sg20
g21
((dp552
I00
I43
sI01
I3
stp553
Rp554
sg25
I2
sg26
F47.0
sbs(g9
Vcontains(arrest)
p555
tp556
g0
(g14
g2
Ntp557
Rp558
(dp559
g18
F0.5
sg19
I46
sg20
g21
((dp560
I00
I45
sI01
I1
stp561
Rp562
sg25
I2
sg26
F47.0
sbs(g8
Vcontains(whos)
p563
tp564
g0
(g14
g2
Ntp565
Rp566
(dp567
g18
F0.5
sg19
I52
sg20
g21
((dp568
I00
I51
sI01
I1
stp569
Rp570
sg25
I2
sg26
F53.0
sbs(g8
Vcontains(dem)
p571
tp572
g0
(g14
g2
Ntp573
Rp574
(dp575
g18
F0.5
sg19
I52
sg20
g21
((dp576
I00
I51
sI01
I1
stp577
Rp578
sg25
I2
sg26
F53.0
sbs(g9
Vcontains(owe)
p579
tp580
g0
(g14
g2
Ntp581
Rp582
(dp583
g18
F0.5
sg19
I46
sg20
g21
((dp584
I00
I46
stp585
Rp586
sg25
I2
sg26
F47.0
sbs(g9
Vcontains(effort)
p587
tp588
g0
(g14
g2
Ntp589
Rp590
(dp591
g18
F0.5
sg19
I46
sg20
g21
((dp592
I00
I45
sI01
I1
stp593
Rp594
sg25
I2
sg26
F47.0
sbs(g9
Vcontains(whos)
p595
tp596
g0
(g14
g2
Ntp597
Rp598
(dp599
g18
F0.5
sg19
I46
sg20
g21
((dp600
I00
I46
stp601
Rp602
sg25
I2
sg26
F47.0
sbs(g9
Vcontains(sterl)
p603
tp604
g0
(g14
g2
Ntp605
Rp606
(dp607
g18
F0.5
sg19
I46
sg20
g21
((dp608
I00
I45
sI01
I1
stp609
Rp610
sg25
I2
sg26
F47.0
sbs(g9
Vcontains(overwhelm)
p611
tp612
g0
(g14
g2
Ntp613
Rp614
(dp615
g18
F0.5
sg19
I46
sg20
g21
((dp616
I00
I46
stp617
Rp618
sg25
I2
sg26
F47.0
sbs(g9
Vcontains(not_abt)
p619
tp620
g0
(g14
g2
Ntp621
Rp622
(dp623
g18
F0.5
sg19
I46
sg20
g21
((dp624
I00
I46
stp625
Rp626
sg25
I2
sg26
F47.0
sbs(g9
Vcontains(problem)
p627
tp628
g0
(g14
g2
Ntp629
Rp630
(dp631
g18
F0.5
sg19
I46
sg20
g21
((dp632
I00
I44
sI01
I2
stp633
Rp634
sg25
I2
sg26
F47.0
sbs(g9
Vcontains(barack)
p635
tp636
g0
(g14
g2
Ntp637
Rp638
(dp639
g18
F0.5
sg19
I46
sg20
g21
((dp640
I00
I46
stp641
Rp642
sg25
I2
sg26
F47.0
sbs(g9
Vcontains(use)
p643
tp644
g0
(g14
g2
Ntp645
Rp646
(dp647
g18
F0.5
sg19
I46
sg20
g21
((dp648
I00
I45
sI01
I1
stp649
Rp650
sg25
I2
sg26
F47.0
sbs(g9
Vcontains(room)
p651
tp652
g0
(g14
g2
Ntp653
Rp654
(dp655
g18
F0.5
sg19
I46
sg20
g21
((dp656
I00
I45
sI01
I1
stp657
Rp658
sg25
I2
sg26
F47.0
sbs(g8
Vcontains(alreadi)
p659
tp660
g0
(g14
g2
Ntp661
Rp662
(dp663
g18
F0.5
sg19
I52
sg20
g21
((dp664
I00
I51
sI01
I1
stp665
Rp666
sg25
I2
sg26
F53.0
sbs(g8
Vcontains(via)
p667
tp668
g0
(g14
g2
Ntp669
Rp670
(dp671
g18
F0.5
sg19
I52
sg20
g21
((dp672
I00
I50
sI01
I2
stp673
Rp674
sg25
I2
sg26
F53.0
sbs(g9
Vcontains(liber)
p675
tp676
g0
(g14
g2
Ntp677
Rp678
(dp679
g18
F0.5
sg19
I46
sg20
g21
((dp680
I00
I42
sI01
I4
stp681
Rp682
sg25
I2
sg26
F47.0
sbs(g9
Vcontains(not_charg)
p683
tp684
g0
(g14
g2
Ntp685
Rp686
(dp687
g18
F0.5
sg19
I46
sg20
g21
((dp688
I00
I45
sI01
I1
stp689
Rp690
sg25
I2
sg26
F47.0
sbs(g8
Vcontains(purpos)
p691
tp692
g0
(g14
g2
Ntp693
Rp694
(dp695
g18
F0.5
sg19
I52
sg20
g21
((dp696
I00
I52
stp697
Rp698
sg25
I2
sg26
F53.0
sbs(g8
Vcontains(use)
p699
tp700
g0
(g14
g2
Ntp701
Rp702
(dp703
g18
F0.5
sg19
I52
sg20
g21
((dp704
I00
I51
sI01
I1
stp705
Rp706
sg25
I2
sg26
F53.0
sbs(g9
Vcontains(your)
p707
tp708
g0
(g14
g2
Ntp709
Rp710
(dp711
g18
F0.5
sg19
I46
sg20
g21
((dp712
I00
I45
sI01
I1
stp713
Rp714
sg25
I2
sg26
F47.0
sbs(g8
Vcontains(gaza)
p715
tp716
g0
(g14
g2
Ntp717
Rp718
(dp719
g18
F0.5
sg19
I52
sg20
g21
((dp720
I00
I51
sI01
I1
stp721
Rp722
sg25
I2
sg26
F53.0
sbs(g9
Vcontains(not_justic)
p723
tp724
g0
(g14
g2
Ntp725
Rp726
(dp727
g18
F0.5
sg19
I46
sg20
g21
((dp728
I00
I45
sI01
I1
stp729
Rp730
sg25
I2
sg26
F47.0
sbs(g8
Vcontains(import)
p731
tp732
g0
(g14
g2
Ntp733
Rp734
(dp735
g18
F0.5
sg19
I52
sg20
g21
((dp736
I00
I51
sI01
I1
stp737
Rp738
sg25
I2
sg26
F53.0
sbs(g9
Vcontains(oh)
p739
tp740
g0
(g14
g2
Ntp741
Rp742
(dp743
g18
F0.5
sg19
I46
sg20
g21
((dp744
I00
I46
stp745
Rp746
sg25
I2
sg26
F47.0
sbs(g8
Vcontains(absolut)
p747
tp748
g0
(g14
g2
Ntp749
Rp750
(dp751
g18
F0.5
sg19
I52
sg20
g21
((dp752
I00
I51
sI01
I1
stp753
Rp754
sg25
I2
sg26
F53.0
sbs(g8
Vcontains(brand)
p755
tp756
g0
(g14
g2
Ntp757
Rp758
(dp759
g18
F0.5
sg19
I52
sg20
g21
((dp760
I00
I52
stp761
Rp762
sg25
I2
sg26
F53.0
sbs(g9
Vcontains(replac)
p763
tp764
g0
(g14
g2
Ntp765
Rp766
(dp767
g18
F0.5
sg19
I46
sg20
g21
((dp768
I00
I45
sI01
I1
stp769
Rp770
sg25
I2
sg26
F47.0
sbs(g8
Vcontains(us)
p771
tp772
g0
(g14
g2
Ntp773
Rp774
(dp775
g18
F0.5
sg19
I52
sg20
g21
((dp776
I00
I52
stp777
Rp778
sg25
I2
sg26
F53.0
sbs(g8
Vcontains(pull)
p779
tp780
g0
(g14
g2
Ntp781
Rp782
(dp783
g18
F0.5
sg19
I52
sg20
g21
((dp784
I00
I52
stp785
Rp786
sg25
I2
sg26
F53.0
sbs(g8
Vcontains(not_histor)
p787
tp788
g0
(g14
g2
Ntp789
Rp790
(dp791
g18
F0.5
sg19
I52
sg20
g21
((dp792
I00
I51
sI01
I1
stp793
Rp794
sg25
I2
sg26
F53.0
sbs(g8
Vcontains(femal)
p795
tp796
g0
(g14
g2
Ntp797
Rp798
(dp799
g18
F0.5
sg19
I52
sg20
g21
((dp800
I00
I51
sI01
I1
stp801
Rp802
sg25
I2
sg26
F53.0
sbs(g8
Vcontains(not_men)
p803
tp804
g0
(g14
g2
Ntp805
Rp806
(dp807
g18
F0.5
sg19
I52
sg20
g21
((dp808
I00
I51
sI01
I1
stp809
Rp810
sg25
I2
sg26
F53.0
sbs(g9
Vcontains(occup)
p811
tp812
g0
(g14
g2
Ntp813
Rp814
(dp815
g18
F0.5
sg19
I46
sg20
g21
((dp816
I00
I45
sI01
I1
stp817
Rp818
sg25
I2
sg26
F47.0
sbs(g8
Vcontains(not_priv)
p819
tp820
g0
(g14
g2
Ntp821
Rp822
(dp823
g18
F0.5
sg19
I52
sg20
g21
((dp824
I00
I52
stp825
Rp826
sg25
I2
sg26
F53.0
sbs(g8
Vcontains(there)
p827
tp828
g0
(g14
g2
Ntp829
Rp830
(dp831
g18
F0.5
sg19
I52
sg20
g21
((dp832
I00
I51
sI01
I1
stp833
Rp834
sg25
I2
sg26
F53.0
sbs(g9
Vcontains(pull)
p835
tp836
g0
(g14
g2
Ntp837
Rp838
(dp839
g18
F0.5
sg19
I46
sg20
g21
((dp840
I00
I45
sI01
I1
stp841
Rp842
sg25
I2
sg26
F47.0
sbs(g8
Vcontains(cooki)
p843
tp844
g0
(g14
g2
Ntp845
Rp846
(dp847
g18
F0.5
sg19
I52
sg20
g21
((dp848
I00
I51
sI01
I1
stp849
Rp850
sg25
I2
sg26
F53.0
sbs(g9
Vcontains(preced)
p851
tp852
g0
(g14
g2
Ntp853
Rp854
(dp855
g18
F0.5
sg19
I46
sg20
g21
((dp856
I00
I46
stp857
Rp858
sg25
I2
sg26
F47.0
sbs(g9
Vcontains(portsmouth)
p859
tp860
g0
(g14
g2
Ntp861
Rp862
(dp863
g18
F0.5
sg19
I46
sg20
g21
((dp864
I00
I45
sI01
I1
stp865
Rp866
sg25
I2
sg26
F47.0
sbs(g8
Vcontains(sinodino)
p867
tp868
g0
(g14
g2
Ntp869
Rp870
(dp871
g18
F0.5
sg19
I52
sg20
g21
((dp872
I00
I52
stp873
Rp874
sg25
I2
sg26
F53.0
sbs(g8
Vcontains(lab)
p875
tp876
g0
(g14
g2
Ntp877
Rp878
(dp879
g18
F0.5
sg19
I52
sg20
g21
((dp880
I00
I52
stp881
Rp882
sg25
I2
sg26
F53.0
sbs(g9
Vcontains(iraqi)
p883
tp884
g0
(g14
g2
Ntp885
Rp886
(dp887
g18
F0.5
sg19
I46
sg20
g21
((dp888
I00
I46
stp889
Rp890
sg25
I2
sg26
F47.0
sbs(g9
Vcontains(differ)
p891
tp892
g0
(g14
g2
Ntp893
Rp894
(dp895
g18
F0.5
sg19
I46
sg20
g21
((dp896
I00
I46
stp897
Rp898
sg25
I2
sg26
F47.0
sbs(g8
Vcontains(wiesel)
p899
tp900
g0
(g14
g2
Ntp901
Rp902
(dp903
g18
F0.5
sg19
I52
sg20
g21
((dp904
I00
I52
stp905
Rp906
sg25
I2
sg26
F53.0
sbs(g9
Vcontains(provid)
p907
tp908
g0
(g14
g2
Ntp909
Rp910
(dp911
g18
F0.5
sg19
I46
sg20
g21
((dp912
I00
I46
stp913
Rp914
sg25
I2
sg26
F47.0
sbs(g8
Vcontains(reject)
p915
tp916
g0
(g14
g2
Ntp917
Rp918
(dp919
g18
F0.5
sg19
I52
sg20
g21
((dp920
I00
I51
sI01
I1
stp921
Rp922
sg25
I2
sg26
F53.0
sbs(g8
Vcontains(bull)
p923
tp924
g0
(g14
g2
Ntp925
Rp926
(dp927
g18
F0.5
sg19
I52
sg20
g21
((dp928
I00
I51
sI01
I1
stp929
Rp930
sg25
I2
sg26
F53.0
sbs(g9
Vcontains(rud)
p931
tp932
g0
(g14
g2
Ntp933
Rp934
(dp935
g18
F0.5
sg19
I46
sg20
g21
((dp936
I00
I45
sI01
I1
stp937
Rp938
sg25
I2
sg26
F47.0
sbs(g8
Vcontains(save)
p939
tp940
g0
(g14
g2
Ntp941
Rp942
(dp943
g18
F0.5
sg19
I52
sg20
g21
((dp944
I00
I52
stp945
Rp946
sg25
I2
sg26
F53.0
sbs(g8
Vcontains(fbi)
p947
tp948
g0
(g14
g2
Ntp949
Rp950
(dp951
g18
F0.5
sg19
I52
sg20
g21
((dp952
I00
I50
sI01
I2
stp953
Rp954
sg25
I2
sg26
F53.0
sbs(g8
Vcontains(room)
p955
tp956
g0
(g14
g2
Ntp957
Rp958
(dp959
g18
F0.5
sg19
I52
sg20
g21
((dp960
I00
I52
stp961
Rp962
sg25
I2
sg26
F53.0
sbs(g9
Vcontains(not_distract)
p963
tp964
g0
(g14
g2
Ntp965
Rp966
(dp967
g18
F0.5
sg19
I46
sg20
g21
((dp968
I00
I46
stp969
Rp970
sg25
I2
sg26
F47.0
sbs(g8
Vcontains(not_real)
p971
tp972
g0
(g14
g2
Ntp973
Rp974
(dp975
g18
F0.5
sg19
I52
sg20
g21
((dp976
I00
I51
sI01
I1
stp977
Rp978
sg25
I2
sg26
F53.0
sbs(g9
Vcontains(entertain)
p979
tp980
g0
(g14
g2
Ntp981
Rp982
(dp983
g18
F0.5
sg19
I46
sg20
g21
((dp984
I00
I46
stp985
Rp986
sg25
I2
sg26
F47.0
sbs(g9
Vcontains(campaign)
p987
tp988
g0
(g14
g2
Ntp989
Rp990
(dp991
g18
F0.5
sg19
I46
sg20
g21
((dp992
I00
I46
stp993
Rp994
sg25
I2
sg26
F47.0
sbs(g8
Vcontains(not_distract)
p995
tp996
g0
(g14
g2
Ntp997
Rp998
(dp999
g18
F0.5
sg19
I52
sg20
g21
((dp1000
I00
I51
sI01
I1
stp1001
Rp1002
sg25
I2
sg26
F53.0
sbs(g8
Vcontains(offens)
p1003
tp1004
g0
(g14
g2
Ntp1005
Rp1006
(dp1007
g18
F0.5
sg19
I52
sg20
g21
((dp1008
I00
I51
sI01
I1
stp1009
Rp1010
sg25
I2
sg26
F53.0
sbs(g9
Vcontains(rig)
p1011
tp1012
g0
(g14
g2
Ntp1013
Rp1014
(dp1015
g18
F0.5
sg19
I46
sg20
g21
((dp1016
I00
I45
sI01
I1
stp1017
Rp1018
sg25
I2
sg26
F47.0
sbs(g8
Vcontains(ted)
p1019
tp1020
g0
(g14
g2
Ntp1021
Rp1022
(dp1023
g18
F0.5
sg19
I52
sg20
g21
((dp1024
I00
I52
stp1025
Rp1026
sg25
I2
sg26
F53.0
sbs(g8
Vcontains(accomplish)
p1027
tp1028
g0
(g14
g2
Ntp1029
Rp1030
(dp1031
g18
F0.5
sg19
I52
sg20
g21
((dp1032
I00
I52
stp1033
Rp1034
sg25
I2
sg26
F53.0
sbs(g9
Vcontains(men)
p1035
tp1036
g0
(g14
g2
Ntp1037
Rp1038
(dp1039
g18
F0.5
sg19
I46
sg20
g21
((dp1040
I00
I46
stp1041
Rp1042
sg25
I2
sg26
F47.0
sbs(g8
Vcontains(better)
p1043
tp1044
g0
(g14
g2
Ntp1045
Rp1046
(dp1047
g18
F0.5
sg19
I52
sg20
g21
((dp1048
I00
I49
sI01
I3
stp1049
Rp1050
sg25
I2
sg26
F53.0
sbs(g9
Vcontains(drop)
p1051
tp1052
g0
(g14
g2
Ntp1053
Rp1054
(dp1055
g18
F0.5
sg19
I46
sg20
g21
((dp1056
I00
I45
sI01
I1
stp1057
Rp1058
sg25
I2
sg26
F47.0
sbs(g8
Vcontains(doubl)
p1059
tp1060
g0
(g14
g2
Ntp1061
Rp1062
(dp1063
g18
F0.5
sg19
I52
sg20
g21
((dp1064
I00
I51
sI01
I1
stp1065
Rp1066
sg25
I2
sg26
F53.0
sbs(g8
Vcontains(thou)
p1067
tp1068
g0
(g14
g2
Ntp1069
Rp1070
(dp1071
g18
F0.5
sg19
I52
sg20
g21
((dp1072
I00
I51
sI01
I1
stp1073
Rp1074
sg25
I2
sg26
F53.0
sbs(g9
Vcontains(not_sens)
p1075
tp1076
g0
(g14
g2
Ntp1077
Rp1078
(dp1079
g18
F0.5
sg19
I46
sg20
g21
((dp1080
I00
I46
stp1081
Rp1082
sg25
I2
sg26
F47.0
sbs(g8
Vcontains(happen)
p1083
tp1084
g0
(g14
g2
Ntp1085
Rp1086
(dp1087
g18
F0.5
sg19
I52
sg20
g21
((dp1088
I00
I51
sI01
I1
stp1089
Rp1090
sg25
I2
sg26
F53.0
sbs(g9
Vcontains(dem)
p1091
tp1092
g0
(g14
g2
Ntp1093
Rp1094
(dp1095
g18
F0.5
sg19
I46
sg20
g21
((dp1096
I00
I46
stp1097
Rp1098
sg25
I2
sg26
F47.0
sbs(g9
Vcontains(african)
p1099
tp1100
g0
(g14
g2
Ntp1101
Rp1102
(dp1103
g18
F0.5
sg19
I46
sg20
g21
((dp1104
I00
I46
stp1105
Rp1106
sg25
I2
sg26
F47.0
sbs(g8
Vcontains(wow)
p1107
tp1108
g0
(g14
g2
Ntp1109
Rp1110
(dp1111
g18
F0.5
sg19
I52
sg20
g21
((dp1112
I00
I52
stp1113
Rp1114
sg25
I2
sg26
F53.0
sbs(g8
Vcontains(reform)
p1115
tp1116
g0
(g14
g2
Ntp1117
Rp1118
(dp1119
g18
F0.5
sg19
I52
sg20
g21
((dp1120
I00
I52
stp1121
Rp1122
sg25
I2
sg26
F53.0
sbs(g8
Vcontains(tire)
p1123
tp1124
g0
(g14
g2
Ntp1125
Rp1126
(dp1127
g18
F0.5
sg19
I52
sg20
g21
((dp1128
I00
I52
stp1129
Rp1130
sg25
I2
sg26
F53.0
sbs(g9
Vcontains(vicious)
p1131
tp1132
g0
(g14
g2
Ntp1133
Rp1134
(dp1135
g18
F0.5
sg19
I46
sg20
g21
((dp1136
I00
I46
stp1137
Rp1138
sg25
I2
sg26
F47.0
sbs(g8
Vcontains(not_class)
p1139
tp1140
g0
(g14
g2
Ntp1141
Rp1142
(dp1143
g18
F0.5
sg19
I52
sg20
g21
((dp1144
I00
I51
sI01
I1
stp1145
Rp1146
sg25
I2
sg26
F53.0
sbs(g9
Vcontains(cooki)
p1147
tp1148
g0
(g14
g2
Ntp1149
Rp1150
(dp1151
g18
F0.5
sg19
I46
sg20
g21
((dp1152
I00
I46
stp1153
Rp1154
sg25
I2
sg26
F47.0
sbs(g8
Vcontains(african)
p1155
tp1156
g0
(g14
g2
Ntp1157
Rp1158
(dp1159
g18
F0.5
sg19
I52
sg20
g21
((dp1160
I00
I51
sI01
I1
stp1161
Rp1162
sg25
I2
sg26
F53.0
sbs(g8
Vcontains(pastor)
p1163
tp1164
g0
(g14
g2
Ntp1165
Rp1166
(dp1167
g18
F0.5
sg19
I52
sg20
g21
((dp1168
I00
I51
sI01
I1
stp1169
Rp1170
sg25
I2
sg26
F53.0
sbs(g9
Vcontains(curtain)
p1171
tp1172
g0
(g14
g2
Ntp1173
Rp1174
(dp1175
g18
F0.5
sg19
I46
sg20
g21
((dp1176
I00
I45
sI01
I1
stp1177
Rp1178
sg25
I2
sg26
F47.0
sbs(g9
Vcontains(predict)
p1179
tp1180
g0
(g14
g2
Ntp1181
Rp1182
(dp1183
g18
F0.5
sg19
I46
sg20
g21
((dp1184
I00
I45
sI01
I1
stp1185
Rp1186
sg25
I2
sg26
F47.0
sbs(g8
Vcontains(gone)
p1187
tp1188
g0
(g14
g2
Ntp1189
Rp1190
(dp1191
g18
F0.5
sg19
I52
sg20
g21
((dp1192
I00
I52
stp1193
Rp1194
sg25
I2
sg26
F53.0
sbs(g8
Vcontains(blame)
p1195
tp1196
g0
(g14
g2
Ntp1197
Rp1198
(dp1199
g18
F0.5
sg19
I52
sg20
g21
((dp1200
I00
I51
sI01
I1
stp1201
Rp1202
sg25
I2
sg26
F53.0
sbs(g9
Vcontains(iraq)
p1203
tp1204
g0
(g14
g2
Ntp1205
Rp1206
(dp1207
g18
F0.5
sg19
I46
sg20
g21
((dp1208
I00
I45
sI01
I1
stp1209
Rp1210
sg25
I2
sg26
F47.0
sbs(g8
Vcontains(corrin)
p1211
tp1212
g0
(g14
g2
Ntp1213
Rp1214
(dp1215
g18
F0.5
sg19
I52
sg20
g21
((dp1216
I00
I51
sI01
I1
stp1217
Rp1218
sg25
I2
sg26
F53.0
sbs(g8
Vcontains(end)
p1219
tp1220
g0
(g14
g2
Ntp1221
Rp1222
(dp1223
g18
F0.5
sg19
I52
sg20
g21
((dp1224
I00
I51
sI01
I1
stp1225
Rp1226
sg25
I2
sg26
F53.0
sbs(g9
Vcontains(berni)
p1227
tp1228
g0
(g14
g2
Ntp1229
Rp1230
(dp1231
g18
F0.5
sg19
I46
sg20
g21
((dp1232
I00
I46
stp1233
Rp1234
sg25
I2
sg26
F47.0
sbs(g9
Vcontains(not_mak)
p1235
tp1236
g0
(g14
g2
Ntp1237
Rp1238
(dp1239
g18
F0.5
sg19
I46
sg20
g21
((dp1240
I00
I46
stp1241
Rp1242
sg25
I2
sg26
F47.0
sbs(g9
Vcontains(death)
p1243
tp1244
g0
(g14
g2
Ntp1245
Rp1246
(dp1247
g18
F0.5
sg19
I46
sg20
g21
((dp1248
I00
I46
stp1249
Rp1250
sg25
I2
sg26
F47.0
sbs(g8
Vcontains(boo)
p1251
tp1252
g0
(g14
g2
Ntp1253
Rp1254
(dp1255
g18
F0.5
sg19
I52
sg20
g21
((dp1256
I00
I52
stp1257
Rp1258
sg25
I2
sg26
F53.0
sbs(g9
Vcontains(check)
p1259
tp1260
g0
(g14
g2
Ntp1261
Rp1262
(dp1263
g18
F0.5
sg19
I46
sg20
g21
((dp1264
I00
I46
stp1265
Rp1266
sg25
I2
sg26
F47.0
sbs(g9
Vcontains(suppos)
p1267
tp1268
g0
(g14
g2
Ntp1269
Rp1270
(dp1271
g18
F0.5
sg19
I46
sg20
g21
((dp1272
I00
I45
sI01
I1
stp1273
Rp1274
sg25
I2
sg26
F47.0
sbs(g8
Vcontains(cos)
p1275
tp1276
g0
(g14
g2
Ntp1277
Rp1278
(dp1279
g18
F0.5
sg19
I52
sg20
g21
((dp1280
I00
I52
stp1281
Rp1282
sg25
I2
sg26
F53.0
sbs(g8
Vcontains(not_li)
p1283
tp1284
g0
(g14
g2
Ntp1285
Rp1286
(dp1287
g18
F0.5
sg19
I52
sg20
g21
((dp1288
I00
I51
sI01
I1
stp1289
Rp1290
sg25
I2
sg26
F53.0
sbs(g8
Vcontains(columnist)
p1291
tp1292
g0
(g14
g2
Ntp1293
Rp1294
(dp1295
g18
F0.5
sg19
I52
sg20
g21
((dp1296
I00
I48
sI01
I4
stp1297
Rp1298
sg25
I2
sg26
F53.0
sbs(g9
Vcontains(communiti)
p1299
tp1300
g0
(g14
g2
Ntp1301
Rp1302
(dp1303
g18
F0.5
sg19
I46
sg20
g21
((dp1304
I00
I46
stp1305
Rp1306
sg25
I2
sg26
F47.0
sbs(g8
Vcontains(racial)
p1307
tp1308
g0
(g14
g2
Ntp1309
Rp1310
(dp1311
g18
F0.5
sg19
I52
sg20
g21
((dp1312
I00
I52
stp1313
Rp1314
sg25
I2
sg26
F53.0
sbs(g9
Vcontains(not_gaza)
p1315
tp1316
g0
(g14
g2
Ntp1317
Rp1318
(dp1319
g18
F0.5
sg19
I46
sg20
g21
((dp1320
I00
I46
stp1321
Rp1322
sg25
I2
sg26
F47.0
sbs(g8
Vcontains(biggest)
p1323
tp1324
g0
(g14
g2
Ntp1325
Rp1326
(dp1327
g18
F0.5
sg19
I52
sg20
g21
((dp1328
I00
I52
stp1329
Rp1330
sg25
I2
sg26
F53.0
sbs(g9
Vcontains(good)
p1331
tp1332
g0
(g14
g2
Ntp1333
Rp1334
(dp1335
g18
F0.5
sg19
I46
sg20
g21
((dp1336
I00
I46
stp1337
Rp1338
sg25
I2
sg26
F47.0
sbs(g8
Vcontains(forc)
p1339
tp1340
g0
(g14
g2
Ntp1341
Rp1342
(dp1343
g18
F0.5
sg19
I52
sg20
g21
((dp1344
I00
I51
sI01
I1
stp1345
Rp1346
sg25
I2
sg26
F53.0
sbs(g8
Vcontains(preced)
p1347
tp1348
g0
(g14
g2
Ntp1349
Rp1350
(dp1351
g18
F0.5
sg19
I52
sg20
g21
((dp1352
I00
I51
sI01
I1
stp1353
Rp1354
sg25
I2
sg26
F53.0
sbs(g9
Vcontains(wow)
p1355
tp1356
g0
(g14
g2
Ntp1357
Rp1358
(dp1359
g18
F0.5
sg19
I46
sg20
g21
((dp1360
I00
I45
sI01
I1
stp1361
Rp1362
sg25
I2
sg26
F47.0
sbs(g9
Vcontains(rt)
p1363
tp1364
g0
(g14
g2
Ntp1365
Rp1366
(dp1367
g18
F0.5
sg19
I46
sg20
g21
((dp1368
I00
I18
sI01
I28
stp1369
Rp1370
sg25
I2
sg26
F47.0
sbs(g8
Vcontains(year)
p1371
tp1372
g0
(g14
g2
Ntp1373
Rp1374
(dp1375
g18
F0.5
sg19
I52
sg20
g21
((dp1376
I00
I51
sI01
I1
stp1377
Rp1378
sg25
I2
sg26
F53.0
sbs(g8
Vcontains(except)
p1379
tp1380
g0
(g14
g2
Ntp1381
Rp1382
(dp1383
g18
F0.5
sg19
I52
sg20
g21
((dp1384
I00
I52
stp1385
Rp1386
sg25
I2
sg26
F53.0
sbs(g8
Vcontains(li)
p1387
tp1388
g0
(g14
g2
Ntp1389
Rp1390
(dp1391
g18
F0.5
sg19
I52
sg20
g21
((dp1392
I00
I52
stp1393
Rp1394
sg25
I2
sg26
F53.0
sbs(g8
Vcontains(not_blam)
p1395
tp1396
g0
(g14
g2
Ntp1397
Rp1398
(dp1399
g18
F0.5
sg19
I52
sg20
g21
((dp1400
I00
I51
sI01
I1
stp1401
Rp1402
sg25
I2
sg26
F53.0
sbs(g8
Vcontains(call)
p1403
tp1404
g0
(g14
g2
Ntp1405
Rp1406
(dp1407
g18
F0.5
sg19
I52
sg20
g21
((dp1408
I00
I52
stp1409
Rp1410
sg25
I2
sg26
F53.0
sbs(g9
Vcontains(could)
p1411
tp1412
g0
(g14
g2
Ntp1413
Rp1414
(dp1415
g18
F0.5
sg19
I46
sg20
g21
((dp1416
I00
I45
sI01
I1
stp1417
Rp1418
sg25
I2
sg26
F47.0
sbs(g8
Vcontains(promot)
p1419
tp1420
g0
(g14
g2
Ntp1421
Rp1422
(dp1423
g18
F0.5
sg19
I52
sg20
g21
((dp1424
I00
I52
stp1425
Rp1426
sg25
I2
sg26
F53.0
sbs(g8
Vcontains(rw)
p1427
tp1428
g0
(g14
g2
Ntp1429
Rp1430
(dp1431
g18
F0.5
sg19
I52
sg20
g21
((dp1432
I00
I52
stp1433
Rp1434
sg25
I2
sg26
F53.0
sbs(g9
Vcontains(non)
p1435
tp1436
g0
(g14
g2
Ntp1437
Rp1438
(dp1439
g18
F0.5
sg19
I46
sg20
g21
((dp1440
I00
I46
stp1441
Rp1442
sg25
I2
sg26
F47.0
sbs(g8
Vcontains(theori)
p1443
tp1444
g0
(g14
g2
Ntp1445
Rp1446
(dp1447
g18
F0.5
sg19
I52
sg20
g21
((dp1448
I00
I52
stp1449
Rp1450
sg25
I2
sg26
F53.0
sbs(g9
Vcontains(pit)
p1451
tp1452
g0
(g14
g2
Ntp1453
Rp1454
(dp1455
g18
F0.5
sg19
I46
sg20
g21
((dp1456
I00
I46
stp1457
Rp1458
sg25
I2
sg26
F47.0
sbs(g9
Vcontains(not_real)
p1459
tp1460
g0
(g14
g2
Ntp1461
Rp1462
(dp1463
g18
F0.5
sg19
I46
sg20
g21
((dp1464
I00
I46
stp1465
Rp1466
sg25
I2
sg26
F47.0
sbs(g9
Vcontains(not_who)
p1467
tp1468
g0
(g14
g2
Ntp1469
Rp1470
(dp1471
g18
F0.5
sg19
I46
sg20
g21
((dp1472
I00
I46
stp1473
Rp1474
sg25
I2
sg26
F47.0
sbs(g8
Vcontains(corrupt)
p1475
tp1476
g0
(g14
g2
Ntp1477
Rp1478
(dp1479
g18
F0.5
sg19
I52
sg20
g21
((dp1480
I00
I51
sI01
I1
stp1481
Rp1482
sg25
I2
sg26
F53.0
sbs(g8
Vcontains(not_god)
p1483
tp1484
g0
(g14
g2
Ntp1485
Rp1486
(dp1487
g18
F0.5
sg19
I52
sg20
g21
((dp1488
I00
I51
sI01
I1
stp1489
Rp1490
sg25
I2
sg26
F53.0
sbs(g8
Vcontains(fire)
p1491
tp1492
g0
(g14
g2
Ntp1493
Rp1494
(dp1495
g18
F0.5
sg19
I52
sg20
g21
((dp1496
I00
I51
sI01
I1
stp1497
Rp1498
sg25
I2
sg26
F53.0
sbs(g9
Vcontains(not_clinton)
p1499
tp1500
g0
(g14
g2
Ntp1501
Rp1502
(dp1503
g18
F0.5
sg19
I46
sg20
g21
((dp1504
I00
I46
stp1505
Rp1506
sg25
I2
sg26
F47.0
sbs(g9
Vcontains(impeach)
p1507
tp1508
g0
(g14
g2
Ntp1509
Rp1510
(dp1511
g18
F0.5
sg19
I46
sg20
g21
((dp1512
I00
I45
sI01
I1
stp1513
Rp1514
sg25
I2
sg26
F47.0
sbs(g8
Vcontains(time)
p1515
tp1516
g0
(g14
g2
Ntp1517
Rp1518
(dp1519
g18
F0.5
sg19
I52
sg20
g21
((dp1520
I00
I52
stp1521
Rp1522
sg25
I2
sg26
F53.0
sbs(g9
Vcontains(not_kid)
p1523
tp1524
g0
(g14
g2
Ntp1525
Rp1526
(dp1527
g18
F0.5
sg19
I46
sg20
g21
((dp1528
I00
I45
sI01
I1
stp1529
Rp1530
sg25
I2
sg26
F47.0
sbs(g9
Vcontains(eli)
p1531
tp1532
g0
(g14
g2
Ntp1533
Rp1534
(dp1535
g18
F0.5
sg19
I46
sg20
g21
((dp1536
I00
I45
sI01
I1
stp1537
Rp1538
sg25
I2
sg26
F47.0
sbs(g9
Vcontains(truth)
p1539
tp1540
g0
(g14
g2
Ntp1541
Rp1542
(dp1543
g18
F0.5
sg19
I46
sg20
g21
((dp1544
I00
I44
sI01
I2
stp1545
Rp1546
sg25
I2
sg26
F47.0
sbs(g9
Vcontains(methodist)
p1547
tp1548
g0
(g14
g2
Ntp1549
Rp1550
(dp1551
g18
F0.5
sg19
I46
sg20
g21
((dp1552
I00
I46
stp1553
Rp1554
sg25
I2
sg26
F47.0
sbs(g9
Vcontains(dillard)
p1555
tp1556
g0
(g14
g2
Ntp1557
Rp1558
(dp1559
g18
F0.5
sg19
I46
sg20
g21
((dp1560
I00
I45
sI01
I1
stp1561
Rp1562
sg25
I2
sg26
F47.0
sbs(g8
Vcontains(arm)
p1563
tp1564
g0
(g14
g2
Ntp1565
Rp1566
(dp1567
g18
F0.5
sg19
I52
sg20
g21
((dp1568
I00
I52
stp1569
Rp1570
sg25
I2
sg26
F53.0
sbs(g9
Vcontains(american)
p1571
tp1572
g0
(g14
g2
Ntp1573
Rp1574
(dp1575
g18
F0.5
sg19
I46
sg20
g21
((dp1576
I00
I44
sI01
I2
stp1577
Rp1578
sg25
I2
sg26
F47.0
sbs(g8
Vcontains(not_tank)
p1579
tp1580
g0
(g14
g2
Ntp1581
Rp1582
(dp1583
g18
F0.5
sg19
I52
sg20
g21
((dp1584
I00
I51
sI01
I1
stp1585
Rp1586
sg25
I2
sg26
F53.0
sbs(g8
Vcontains(rep)
p1587
tp1588
g0
(g14
g2
Ntp1589
Rp1590
(dp1591
g18
F0.5
sg19
I52
sg20
g21
((dp1592
I00
I50
sI01
I2
stp1593
Rp1594
sg25
I2
sg26
F53.0
sbs(g8
Vcontains(pray)
p1595
tp1596
g0
(g14
g2
Ntp1597
Rp1598
(dp1599
g18
F0.5
sg19
I52
sg20
g21
((dp1600
I00
I51
sI01
I1
stp1601
Rp1602
sg25
I2
sg26
F53.0
sbs(g8
Vcontains(argu)
p1603
tp1604
g0
(g14
g2
Ntp1605
Rp1606
(dp1607
g18
F0.5
sg19
I52
sg20
g21
((dp1608
I00
I51
sI01
I1
stp1609
Rp1610
sg25
I2
sg26
F53.0
sbs(g8
Vcontains(rt)
p1611
tp1612
g0
(g14
g2
Ntp1613
Rp1614
(dp1615
g18
F0.5
sg19
I52
sg20
g21
((dp1616
I00
I19
sI01
I33
stp1617
Rp1618
sg25
I2
sg26
F53.0
sbs(g9
Vcontains(lab)
p1619
tp1620
g0
(g14
g2
Ntp1621
Rp1622
(dp1623
g18
F0.5
sg19
I46
sg20
g21
((dp1624
I00
I45
sI01
I1
stp1625
Rp1626
sg25
I2
sg26
F47.0
sbs(g9
Vcontains(narrat)
p1627
tp1628
g0
(g14
g2
Ntp1629
Rp1630
(dp1631
g18
F0.5
sg19
I46
sg20
g21
((dp1632
I00
I45
sI01
I1
stp1633
Rp1634
sg25
I2
sg26
F47.0
sbs(g9
Vcontains(suffer)
p1635
tp1636
g0
(g14
g2
Ntp1637
Rp1638
(dp1639
g18
F0.5
sg19
I46
sg20
g21
((dp1640
I00
I46
stp1641
Rp1642
sg25
I2
sg26
F47.0
sbs(g8
Vcontains(prais)
p1643
tp1644
g0
(g14
g2
Ntp1645
Rp1646
(dp1647
g18
F0.5
sg19
I52
sg20
g21
((dp1648
I00
I50
sI01
I2
stp1649
Rp1650
sg25
I2
sg26
F53.0
sbs(g9
Vcontains(economist)
p1651
tp1652
g0
(g14
g2
Ntp1653
Rp1654
(dp1655
g18
F0.5
sg19
I46
sg20
g21
((dp1656
I00
I45
sI01
I1
stp1657
Rp1658
sg25
I2
sg26
F47.0
sbs(g8
Vcontains(palestinian)
p1659
tp1660
g0
(g14
g2
Ntp1661
Rp1662
(dp1663
g18
F0.5
sg19
I52
sg20
g21
((dp1664
I00
I49
sI01
I3
stp1665
Rp1666
sg25
I2
sg26
F53.0
sbs(g8
Vcontains(hondura)
p1667
tp1668
g0
(g14
g2
Ntp1669
Rp1670
(dp1671
g18
F0.5
sg19
I52
sg20
g21
((dp1672
I00
I51
sI01
I1
stp1673
Rp1674
sg25
I2
sg26
F53.0
sbs(g8
Vcontains(option)
p1675
tp1676
g0
(g14
g2
Ntp1677
Rp1678
(dp1679
g18
F0.5
sg19
I52
sg20
g21
((dp1680
I00
I51
sI01
I1
stp1681
Rp1682
sg25
I2
sg26
F53.0
sbs(g9
Vcontains(idea)
p1683
tp1684
g0
(g14
g2
Ntp1685
Rp1686
(dp1687
g18
F0.5
sg19
I46
sg20
g21
((dp1688
I00
I46
stp1689
Rp1690
sg25
I2
sg26
F47.0
sbs(g8
Vcontains(famili)
p1691
tp1692
g0
(g14
g2
Ntp1693
Rp1694
(dp1695
g18
F0.5
sg19
I52
sg20
g21
((dp1696
I00
I52
stp1697
Rp1698
sg25
I2
sg26
F53.0
sbs(g8
Vcontains(kill)
p1699
tp1700
g0
(g14
g2
Ntp1701
Rp1702
(dp1703
g18
F0.5
sg19
I52
sg20
g21
((dp1704
I00
I51
sI01
I1
stp1705
Rp1706
sg25
I2
sg26
F53.0
sbs(g9
Vcontains(fraud)
p1707
tp1708
g0
(g14
g2
Ntp1709
Rp1710
(dp1711
g18
F0.5
sg19
I46
sg20
g21
((dp1712
I00
I46
stp1713
Rp1714
sg25
I2
sg26
F47.0
sbs(g8
Vcontains(isi)
p1715
tp1716
g0
(g14
g2
Ntp1717
Rp1718
(dp1719
g18
F0.5
sg19
I52
sg20
g21
((dp1720
I00
I52
stp1721
Rp1722
sg25
I2
sg26
F53.0
sbs(g9
Vcontains(mere)
p1723
tp1724
g0
(g14
g2
Ntp1725
Rp1726
(dp1727
g18
F0.5
sg19
I46
sg20
g21
((dp1728
I00
I46
stp1729
Rp1730
sg25
I2
sg26
F47.0
sbs(g8
Vcontains(love)
p1731
tp1732
g0
(g14
g2
Ntp1733
Rp1734
(dp1735
g18
F0.5
sg19
I52
sg20
g21
((dp1736
I00
I51
sI01
I1
stp1737
Rp1738
sg25
I2
sg26
F53.0
sbs(g9
Vcontains(famili)
p1739
tp1740
g0
(g14
g2
Ntp1741
Rp1742
(dp1743
g18
F0.5
sg19
I46
sg20
g21
((dp1744
I00
I44
sI01
I2
stp1745
Rp1746
sg25
I2
sg26
F47.0
sbs(g8
Vcontains(votin)
p1747
tp1748
g0
(g14
g2
Ntp1749
Rp1750
(dp1751
g18
F0.5
sg19
I52
sg20
g21
((dp1752
I00
I51
sI01
I1
stp1753
Rp1754
sg25
I2
sg26
F53.0
sbs(g8
Vcontains(flaw)
p1755
tp1756
g0
(g14
g2
Ntp1757
Rp1758
(dp1759
g18
F0.5
sg19
I52
sg20
g21
((dp1760
I00
I52
stp1761
Rp1762
sg25
I2
sg26
F53.0
sbs(g9
Vcontains(central)
p1763
tp1764
g0
(g14
g2
Ntp1765
Rp1766
(dp1767
g18
F0.5
sg19
I46
sg20
g21
((dp1768
I00
I45
sI01
I1
stp1769
Rp1770
sg25
I2
sg26
F47.0
sbs(g9
Vcontains(ted)
p1771
tp1772
g0
(g14
g2
Ntp1773
Rp1774
(dp1775
g18
F0.5
sg19
I46
sg20
g21
((dp1776
I00
I45
sI01
I1
stp1777
Rp1778
sg25
I2
sg26
F47.0
sbs(g9
Vcontains(georg)
p1779
tp1780
g0
(g14
g2
Ntp1781
Rp1782
(dp1783
g18
F0.5
sg19
I46
sg20
g21
((dp1784
I00
I45
sI01
I1
stp1785
Rp1786
sg25
I2
sg26
F47.0
sbs(g9
Vcontains(peopl)
p1787
tp1788
g0
(g14
g2
Ntp1789
Rp1790
(dp1791
g18
F0.5
sg19
I46
sg20
g21
((dp1792
I00
I46
stp1793
Rp1794
sg25
I2
sg26
F47.0
sbs(g8
Vcontains(pleas)
p1795
tp1796
g0
(g14
g2
Ntp1797
Rp1798
(dp1799
g18
F0.5
sg19
I52
sg20
g21
((dp1800
I00
I52
stp1801
Rp1802
sg25
I2
sg26
F53.0
sbs(g8
Vcontains(militar)
p1803
tp1804
g0
(g14
g2
Ntp1805
Rp1806
(dp1807
g18
F0.5
sg19
I52
sg20
g21
((dp1808
I00
I52
stp1809
Rp1810
sg25
I2
sg26
F53.0
sbs(g9
Vcontains(toward)
p1811
tp1812
g0
(g14
g2
Ntp1813
Rp1814
(dp1815
g18
F0.5
sg19
I46
sg20
g21
((dp1816
I00
I45
sI01
I1
stp1817
Rp1818
sg25
I2
sg26
F47.0
sbs(g8
Vcontains(appear)
p1819
tp1820
g0
(g14
g2
Ntp1821
Rp1822
(dp1823
g18
F0.5
sg19
I52
sg20
g21
((dp1824
I00
I52
stp1825
Rp1826
sg25
I2
sg26
F53.0
sbs(g9
Vcontains(power)
p1827
tp1828
g0
(g14
g2
Ntp1829
Rp1830
(dp1831
g18
F0.5
sg19
I46
sg20
g21
((dp1832
I00
I46
stp1833
Rp1834
sg25
I2
sg26
F47.0
sbs(g9
Vcontains(not_men)
p1835
tp1836
g0
(g14
g2
Ntp1837
Rp1838
(dp1839
g18
F0.5
sg19
I46
sg20
g21
((dp1840
I00
I46
stp1841
Rp1842
sg25
I2
sg26
F47.0
sbs(g8
Vcontains(street)
p1843
tp1844
g0
(g14
g2
Ntp1845
Rp1846
(dp1847
g18
F0.5
sg19
I52
sg20
g21
((dp1848
I00
I52
stp1849
Rp1850
sg25
I2
sg26
F53.0
sbs(g8
Vcontains(american)
p1851
tp1852
g0
(g14
g2
Ntp1853
Rp1854
(dp1855
g18
F0.5
sg19
I52
sg20
g21
((dp1856
I00
I51
sI01
I1
stp1857
Rp1858
sg25
I2
sg26
F53.0
sbs(g8
Vcontains(fatal)
p1859
tp1860
g0
(g14
g2
Ntp1861
Rp1862
(dp1863
g18
F0.5
sg19
I52
sg20
g21
((dp1864
I00
I52
stp1865
Rp1866
sg25
I2
sg26
F53.0
sbs(g8
Vcontains(polic)
p1867
tp1868
g0
(g14
g2
Ntp1869
Rp1870
(dp1871
g18
F0.5
sg19
I52
sg20
g21
((dp1872
I00
I52
stp1873
Rp1874
sg25
I2
sg26
F53.0
sbs(g9
Vcontains(bet)
p1875
tp1876
g0
(g14
g2
Ntp1877
Rp1878
(dp1879
g18
F0.5
sg19
I46
sg20
g21
((dp1880
I00
I46
stp1881
Rp1882
sg25
I2
sg26
F47.0
sbs(g8
Vcontains(congress)
p1883
tp1884
g0
(g14
g2
Ntp1885
Rp1886
(dp1887
g18
F0.5
sg19
I52
sg20
g21
((dp1888
I00
I52
stp1889
Rp1890
sg25
I2
sg26
F53.0
sbs(g8
Vcontains(part)
p1891
tp1892
g0
(g14
g2
Ntp1893
Rp1894
(dp1895
g18
F0.5
sg19
I52
sg20
g21
((dp1896
I00
I51
sI01
I1
stp1897
Rp1898
sg25
I2
sg26
F53.0
sbs(g8
Vcontains(sterl)
p1899
tp1900
g0
(g14
g2
Ntp1901
Rp1902
(dp1903
g18
F0.5
sg19
I52
sg20
g21
((dp1904
I00
I52
stp1905
Rp1906
sg25
I2
sg26
F53.0
sbs(g8
Vcontains(divid)
p1907
tp1908
g0
(g14
g2
Ntp1909
Rp1910
(dp1911
g18
F0.5
sg19
I52
sg20
g21
((dp1912
I00
I52
stp1913
Rp1914
sg25
I2
sg26
F53.0
sbs(g9
Vcontains(entir)
p1915
tp1916
g0
(g14
g2
Ntp1917
Rp1918
(dp1919
g18
F0.5
sg19
I46
sg20
g21
((dp1920
I00
I42
sI01
I4
stp1921
Rp1922
sg25
I2
sg26
F47.0
sbs(g8
Vcontains(ars)
p1923
tp1924
g0
(g14
g2
Ntp1925
Rp1926
(dp1927
g18
F0.5
sg19
I52
sg20
g21
((dp1928
I00
I52
stp1929
Rp1930
sg25
I2
sg26
F53.0
sbs(g8
Vcontains(tri)
p1931
tp1932
g0
(g14
g2
Ntp1933
Rp1934
(dp1935
g18
F0.5
sg19
I52
sg20
g21
((dp1936
I00
I51
sI01
I1
stp1937
Rp1938
sg25
I2
sg26
F53.0
sbs(g9
Vcontains(issu)
p1939
tp1940
g0
(g14
g2
Ntp1941
Rp1942
(dp1943
g18
F0.5
sg19
I46
sg20
g21
((dp1944
I00
I46
stp1945
Rp1946
sg25
I2
sg26
F47.0
sbs(g9
Vcontains(not_whov)
p1947
tp1948
g0
(g14
g2
Ntp1949
Rp1950
(dp1951
g18
F0.5
sg19
I46
sg20
g21
((dp1952
I00
I46
stp1953
Rp1954
sg25
I2
sg26
F47.0
sbs(g8
Vcontains(signific)
p1955
tp1956
g0
(g14
g2
Ntp1957
Rp1958
(dp1959
g18
F0.5
sg19
I52
sg20
g21
((dp1960
I00
I52
stp1961
Rp1962
sg25
I2
sg26
F53.0
sbs(g8
Vcontains(money)
p1963
tp1964
g0
(g14
g2
Ntp1965
Rp1966
(dp1967
g18
F0.5
sg19
I52
sg20
g21
((dp1968
I00
I51
sI01
I1
stp1969
Rp1970
sg25
I2
sg26
F53.0
sbs(g9
Vcontains(administr)
p1971
tp1972
g0
(g14
g2
Ntp1973
Rp1974
(dp1975
g18
F0.5
sg19
I46
sg20
g21
((dp1976
I00
I45
sI01
I1
stp1977
Rp1978
sg25
I2
sg26
F47.0
sbs(g9
Vcontains(complet)
p1979
tp1980
g0
(g14
g2
Ntp1981
Rp1982
(dp1983
g18
F0.5
sg19
I46
sg20
g21
((dp1984
I00
I44
sI01
I2
stp1985
Rp1986
sg25
I2
sg26
F47.0
sbs(g8
Vcontains(also)
p1987
tp1988
g0
(g14
g2
Ntp1989
Rp1990
(dp1991
g18
F0.5
sg19
I52
sg20
g21
((dp1992
I00
I52
stp1993
Rp1994
sg25
I2
sg26
F53.0
sbs(g8
Vcontains(not_whov)
p1995
tp1996
g0
(g14
g2
Ntp1997
Rp1998
(dp1999
g18
F0.5
sg19
I52
sg20
g21
((dp2000
I00
I51
sI01
I1
stp2001
Rp2002
sg25
I2
sg26
F53.0
sbs(g9
Vcontains(opposit)
p2003
tp2004
g0
(g14
g2
Ntp2005
Rp2006
(dp2007
g18
F0.5
sg19
I46
sg20
g21
((dp2008
I00
I45
sI01
I1
stp2009
Rp2010
sg25
I2
sg26
F47.0
sbs(g9
Vcontains(nevertrump)
p2011
tp2012
g0
(g14
g2
Ntp2013
Rp2014
(dp2015
g18
F0.5
sg19
I46
sg20
g21
((dp2016
I00
I45
sI01
I1
stp2017
Rp2018
sg25
I2
sg26
F47.0
sbs(g8
Vcontains(voter)
p2019
tp2020
g0
(g14
g2
Ntp2021
Rp2022
(dp2023
g18
F0.5
sg19
I52
sg20
g21
((dp2024
I00
I52
stp2025
Rp2026
sg25
I2
sg26
F53.0
sbs(g9
Vcontains(chang)
p2027
tp2028
g0
(g14
g2
Ntp2029
Rp2030
(dp2031
g18
F0.5
sg19
I46
sg20
g21
((dp2032
I00
I45
sI01
I1
stp2033
Rp2034
sg25
I2
sg26
F47.0
sbs(g8
Vcontains(coloni)
p2035
tp2036
g0
(g14
g2
Ntp2037
Rp2038
(dp2039
g18
F0.5
sg19
I52
sg20
g21
((dp2040
I00
I51
sI01
I1
stp2041
Rp2042
sg25
I2
sg26
F53.0
sbs(g9
Vcontains(yall)
p2043
tp2044
g0
(g14
g2
Ntp2045
Rp2046
(dp2047
g18
F0.5
sg19
I46
sg20
g21
((dp2048
I00
I46
stp2049
Rp2050
sg25
I2
sg26
F47.0
sbs(g9
Vcontains(https)
p2051
tp2052
g0
(g14
g2
Ntp2053
Rp2054
(dp2055
g18
F0.5
sg19
I46
sg20
g21
((dp2056
I00
I44
sI01
I2
stp2057
Rp2058
sg25
I2
sg26
F47.0
sbs(g9
Vcontains(member)
p2059
tp2060
g0
(g14
g2
Ntp2061
Rp2062
(dp2063
g18
F0.5
sg19
I46
sg20
g21
((dp2064
I00
I46
stp2065
Rp2066
sg25
I2
sg26
F47.0
sbs(g9
Vcontains(fellow)
p2067
tp2068
g0
(g14
g2
Ntp2069
Rp2070
(dp2071
g18
F0.5
sg19
I46
sg20
g21
((dp2072
I00
I45
sI01
I1
stp2073
Rp2074
sg25
I2
sg26
F47.0
sbs(g8
Vcontains(not_mob)
p2075
tp2076
g0
(g14
g2
Ntp2077
Rp2078
(dp2079
g18
F0.5
sg19
I52
sg20
g21
((dp2080
I00
I51
sI01
I1
stp2081
Rp2082
sg25
I2
sg26
F53.0
sbs(g8
Vcontains(true)
p2083
tp2084
g0
(g14
g2
Ntp2085
Rp2086
(dp2087
g18
F0.5
sg19
I52
sg20
g21
((dp2088
I00
I51
sI01
I1
stp2089
Rp2090
sg25
I2
sg26
F53.0
sbs(g8
Vcontains(grand)
p2091
tp2092
g0
(g14
g2
Ntp2093
Rp2094
(dp2095
g18
F0.5
sg19
I52
sg20
g21
((dp2096
I00
I51
sI01
I1
stp2097
Rp2098
sg25
I2
sg26
F53.0
sbs(g8
Vcontains(creat)
p2099
tp2100
g0
(g14
g2
Ntp2101
Rp2102
(dp2103
g18
F0.5
sg19
I52
sg20
g21
((dp2104
I00
I52
stp2105
Rp2106
sg25
I2
sg26
F53.0
sbs(g9
Vcontains(reform)
p2107
tp2108
g0
(g14
g2
Ntp2109
Rp2110
(dp2111
g18
F0.5
sg19
I46
sg20
g21
((dp2112
I00
I45
sI01
I1
stp2113
Rp2114
sg25
I2
sg26
F47.0
sbs(g8
Vcontains(fellow)
p2115
tp2116
g0
(g14
g2
Ntp2117
Rp2118
(dp2119
g18
F0.5
sg19
I52
sg20
g21
((dp2120
I00
I52
stp2121
Rp2122
sg25
I2
sg26
F53.0
sbs(g9
Vcontains(not_)
p2123
tp2124
g0
(g14
g2
Ntp2125
Rp2126
(dp2127
g18
F0.5
sg19
I46
sg20
g21
((dp2128
I00
I45
sI01
I1
stp2129
Rp2130
sg25
I2
sg26
F47.0
sbs(g8
Vcontains(subtweet)
p2131
tp2132
g0
(g14
g2
Ntp2133
Rp2134
(dp2135
g18
F0.5
sg19
I52
sg20
g21
((dp2136
I00
I52
stp2137
Rp2138
sg25
I2
sg26
F53.0
sbs(g8
Vcontains(monsanto)
p2139
tp2140
g0
(g14
g2
Ntp2141
Rp2142
(dp2143
g18
F0.5
sg19
I52
sg20
g21
((dp2144
I00
I52
stp2145
Rp2146
sg25
I2
sg26
F53.0
sbs(g9
Vcontains(not_hear)
p2147
tp2148
g0
(g14
g2
Ntp2149
Rp2150
(dp2151
g18
F0.5
sg19
I46
sg20
g21
((dp2152
I00
I45
sI01
I1
stp2153
Rp2154
sg25
I2
sg26
F47.0
sbs(g9
Vcontains(polic)
p2155
tp2156
g0
(g14
g2
Ntp2157
Rp2158
(dp2159
g18
F0.5
sg19
I46
sg20
g21
((dp2160
I00
I45
sI01
I1
stp2161
Rp2162
sg25
I2
sg26
F47.0
sbs(g8
Vcontains(chap)
p2163
tp2164
g0
(g14
g2
Ntp2165
Rp2166
(dp2167
g18
F0.5
sg19
I52
sg20
g21
((dp2168
I00
I51
sI01
I1
stp2169
Rp2170
sg25
I2
sg26
F53.0
sbs(g9
Vcontains(get)
p2171
tp2172
g0
(g14
g2
Ntp2173
Rp2174
(dp2175
g18
F0.5
sg19
I46
sg20
g21
((dp2176
I00
I44
sI01
I2
stp2177
Rp2178
sg25
I2
sg26
F47.0
sbs(g9
Vcontains(not_email)
p2179
tp2180
g0
(g14
g2
Ntp2181
Rp2182
(dp2183
g18
F0.5
sg19
I46
sg20
g21
((dp2184
I00
I46
stp2185
Rp2186
sg25
I2
sg26
F47.0
sbs(g9
Vcontains(involv)
p2187
tp2188
g0
(g14
g2
Ntp2189
Rp2190
(dp2191
g18
F0.5
sg19
I46
sg20
g21
((dp2192
I00
I44
sI01
I2
stp2193
Rp2194
sg25
I2
sg26
F47.0
sbs(g9
Vcontains(matter)
p2195
tp2196
g0
(g14
g2
Ntp2197
Rp2198
(dp2199
g18
F0.5
sg19
I46
sg20
g21
((dp2200
I00
I45
sI01
I1
stp2201
Rp2202
sg25
I2
sg26
F47.0
sbs(g8
Vcontains(hillari)
p2203
tp2204
g0
(g14
g2
Ntp2205
Rp2206
(dp2207
g18
F0.5
sg19
I52
sg20
g21
((dp2208
I00
I29
sI01
I23
stp2209
Rp2210
sg25
I2
sg26
F53.0
sbs(g9
Vcontains(bull)
p2211
tp2212
g0
(g14
g2
Ntp2213
Rp2214
(dp2215
g18
F0.5
sg19
I46
sg20
g21
((dp2216
I00
I46
stp2217
Rp2218
sg25
I2
sg26
F47.0
sbs(g9
Vcontains(rat)
p2219
tp2220
g0
(g14
g2
Ntp2221
Rp2222
(dp2223
g18
F0.5
sg19
I46
sg20
g21
((dp2224
I00
I45
sI01
I1
stp2225
Rp2226
sg25
I2
sg26
F47.0
sbs(g9
Vcontains(come)
p2227
tp2228
g0
(g14
g2
Ntp2229
Rp2230
(dp2231
g18
F0.5
sg19
I46
sg20
g21
((dp2232
I00
I44
sI01
I2
stp2233
Rp2234
sg25
I2
sg26
F47.0
sbs(g8
Vcontains(not_us)
p2235
tp2236
g0
(g14
g2
Ntp2237
Rp2238
(dp2239
g18
F0.5
sg19
I52
sg20
g21
((dp2240
I00
I52
stp2241
Rp2242
sg25
I2
sg26
F53.0
sbs(g9
Vcontains(not_hateit)
p2243
tp2244
g0
(g14
g2
Ntp2245
Rp2246
(dp2247
g18
F0.5
sg19
I46
sg20
g21
((dp2248
I00
I45
sI01
I1
stp2249
Rp2250
sg25
I2
sg26
F47.0
sbs(g9
Vcontains(suprem)
p2251
tp2252
g0
(g14
g2
Ntp2253
Rp2254
(dp2255
g18
F0.5
sg19
I46
sg20
g21
((dp2256
I00
I46
stp2257
Rp2258
sg25
I2
sg26
F47.0
sbs(g9
Vcontains(crook)
p2259
tp2260
g0
(g14
g2
Ntp2261
Rp2262
(dp2263
g18
F0.5
sg19
I46
sg20
g21
((dp2264
I00
I46
stp2265
Rp2266
sg25
I2
sg26
F47.0
sbs(g9
Vcontains(court)
p2267
tp2268
g0
(g14
g2
Ntp2269
Rp2270
(dp2271
g18
F0.5
sg19
I46
sg20
g21
((dp2272
I00
I46
stp2273
Rp2274
sg25
I2
sg26
F47.0
sbs(g8
Vcontains(along)
p2275
tp2276
g0
(g14
g2
Ntp2277
Rp2278
(dp2279
g18
F0.5
sg19
I52
sg20
g21
((dp2280
I00
I52
stp2281
Rp2282
sg25
I2
sg26
F53.0
sbs(g9
Vcontains(doubl)
p2283
tp2284
g0
(g14
g2
Ntp2285
Rp2286
(dp2287
g18
F0.5
sg19
I46
sg20
g21
((dp2288
I00
I46
stp2289
Rp2290
sg25
I2
sg26
F47.0
sbs(g8
Vcontains(not_gaza)
p2291
tp2292
g0
(g14
g2
Ntp2293
Rp2294
(dp2295
g18
F0.5
sg19
I52
sg20
g21
((dp2296
I00
I51
sI01
I1
stp2297
Rp2298
sg25
I2
sg26
F53.0
sbs(g9
Vcontains(fatal)
p2299
tp2300
g0
(g14
g2
Ntp2301
Rp2302
(dp2303
g18
F0.5
sg19
I46
sg20
g21
((dp2304
I00
I44
sI01
I2
stp2305
Rp2306
sg25
I2
sg26
F47.0
sbs(g8
Vcontains(told)
p2307
tp2308
g0
(g14
g2
Ntp2309
Rp2310
(dp2311
g18
F0.5
sg19
I52
sg20
g21
((dp2312
I00
I51
sI01
I1
stp2313
Rp2314
sg25
I2
sg26
F53.0
sbs(g8
Vcontains(hope)
p2315
tp2316
g0
(g14
g2
Ntp2317
Rp2318
(dp2319
g18
F0.5
sg19
I52
sg20
g21
((dp2320
I00
I52
stp2321
Rp2322
sg25
I2
sg26
F53.0
sbs(g9
Vcontains(be)
p2323
tp2324
g0
(g14
g2
Ntp2325
Rp2326
(dp2327
g18
F0.5
sg19
I46
sg20
g21
((dp2328
I00
I46
stp2329
Rp2330
sg25
I2
sg26
F47.0
sbs(g8
Vcontains(ask)
p2331
tp2332
g0
(g14
g2
Ntp2333
Rp2334
(dp2335
g18
F0.5
sg19
I52
sg20
g21
((dp2336
I00
I51
sI01
I1
stp2337
Rp2338
sg25
I2
sg26
F53.0
sbs(g8
Vcontains(breitbart)
p2339
tp2340
g0
(g14
g2
Ntp2341
Rp2342
(dp2343
g18
F0.5
sg19
I52
sg20
g21
((dp2344
I00
I51
sI01
I1
stp2345
Rp2346
sg25
I2
sg26
F53.0
sbs(g8
Vcontains(kenya)
p2347
tp2348
g0
(g14
g2
Ntp2349
Rp2350
(dp2351
g18
F0.5
sg19
I52
sg20
g21
((dp2352
I00
I51
sI01
I1
stp2353
Rp2354
sg25
I2
sg26
F53.0
sbs(g9
Vcontains(hero)
p2355
tp2356
g0
(g14
g2
Ntp2357
Rp2358
(dp2359
g18
F0.5
sg19
I46
sg20
g21
((dp2360
I00
I45
sI01
I1
stp2361
Rp2362
sg25
I2
sg26
F47.0
sbs(g8
Vcontains(law)
p2363
tp2364
g0
(g14
g2
Ntp2365
Rp2366
(dp2367
g18
F0.5
sg19
I52
sg20
g21
((dp2368
I00
I51
sI01
I1
stp2369
Rp2370
sg25
I2
sg26
F53.0
sbs(g8
Vcontains(progress)
p2371
tp2372
g0
(g14
g2
Ntp2373
Rp2374
(dp2375
g18
F0.5
sg19
I52
sg20
g21
((dp2376
I00
I51
sI01
I1
stp2377
Rp2378
sg25
I2
sg26
F53.0
sbs(g8
Vcontains(list)
p2379
tp2380
g0
(g14
g2
Ntp2381
Rp2382
(dp2383
g18
F0.5
sg19
I52
sg20
g21
((dp2384
I00
I51
sI01
I1
stp2385
Rp2386
sg25
I2
sg26
F53.0
sbs(g8
Vcontains(cridlin)
p2387
tp2388
g0
(g14
g2
Ntp2389
Rp2390
(dp2391
g18
F0.5
sg19
I52
sg20
g21
((dp2392
I00
I52
stp2393
Rp2394
sg25
I2
sg26
F53.0
sbs(g9
Vcontains(not_american)
p2395
tp2396
g0
(g14
g2
Ntp2397
Rp2398
(dp2399
g18
F0.5
sg19
I46
sg20
g21
((dp2400
I00
I45
sI01
I1
stp2401
Rp2402
sg25
I2
sg26
F47.0
sbs(g9
Vcontains(signific)
p2403
tp2404
g0
(g14
g2
Ntp2405
Rp2406
(dp2407
g18
F0.5
sg19
I46
sg20
g21
((dp2408
I00
I45
sI01
I1
stp2409
Rp2410
sg25
I2
sg26
F47.0
sbs(g8
Vcontains(not_rich)
p2411
tp2412
g0
(g14
g2
Ntp2413
Rp2414
(dp2415
g18
F0.5
sg19
I52
sg20
g21
((dp2416
I00
I51
sI01
I1
stp2417
Rp2418
sg25
I2
sg26
F53.0
sbs(g9
Vcontains(million)
p2419
tp2420
g0
(g14
g2
Ntp2421
Rp2422
(dp2423
g18
F0.5
sg19
I46
sg20
g21
((dp2424
I00
I45
sI01
I1
stp2425
Rp2426
sg25
I2
sg26
F47.0
sbs(g8
Vcontains(oath)
p2427
tp2428
g0
(g14
g2
Ntp2429
Rp2430
(dp2431
g18
F0.5
sg19
I52
sg20
g21
((dp2432
I00
I52
stp2433
Rp2434
sg25
I2
sg26
F53.0
sbs(g9
Vcontains(via)
p2435
tp2436
g0
(g14
g2
Ntp2437
Rp2438
(dp2439
g18
F0.5
sg19
I46
sg20
g21
((dp2440
I00
I44
sI01
I2
stp2441
Rp2442
sg25
I2
sg26
F47.0
sbs(g8
Vcontains(rud)
p2443
tp2444
g0
(g14
g2
Ntp2445
Rp2446
(dp2447
g18
F0.5
sg19
I52
sg20
g21
((dp2448
I00
I52
stp2449
Rp2450
sg25
I2
sg26
F53.0
sbs(g9
Vcontains(gone)
p2451
tp2452
g0
(g14
g2
Ntp2453
Rp2454
(dp2455
g18
F0.5
sg19
I46
sg20
g21
((dp2456
I00
I45
sI01
I1
stp2457
Rp2458
sg25
I2
sg26
F47.0
sbs(g8
Vcontains(box)
p2459
tp2460
g0
(g14
g2
Ntp2461
Rp2462
(dp2463
g18
F0.5
sg19
I52
sg20
g21
((dp2464
I00
I52
stp2465
Rp2466
sg25
I2
sg26
F53.0
sbs(g8
Vcontains(fraud)
p2467
tp2468
g0
(g14
g2
Ntp2469
Rp2470
(dp2471
g18
F0.5
sg19
I52
sg20
g21
((dp2472
I00
I51
sI01
I1
stp2473
Rp2474
sg25
I2
sg26
F53.0
sbs(g8
Vcontains(narrat)
p2475
tp2476
g0
(g14
g2
Ntp2477
Rp2478
(dp2479
g18
F0.5
sg19
I52
sg20
g21
((dp2480
I00
I52
stp2481
Rp2482
sg25
I2
sg26
F53.0
sbs(g9
Vcontains(not_rich)
p2483
tp2484
g0
(g14
g2
Ntp2485
Rp2486
(dp2487
g18
F0.5
sg19
I46
sg20
g21
((dp2488
I00
I46
stp2489
Rp2490
sg25
I2
sg26
F47.0
sbs(g9
Vcontains(injustic)
p2491
tp2492
g0
(g14
g2
Ntp2493
Rp2494
(dp2495
g18
F0.5
sg19
I46
sg20
g21
((dp2496
I00
I45
sI01
I1
stp2497
Rp2498
sg25
I2
sg26
F47.0
sbs(g8
Vcontains(fund)
p2499
tp2500
g0
(g14
g2
Ntp2501
Rp2502
(dp2503
g18
F0.5
sg19
I52
sg20
g21
((dp2504
I00
I50
sI01
I2
stp2505
Rp2506
sg25
I2
sg26
F53.0
sbs(g8
Vcontains(win)
p2507
tp2508
g0
(g14
g2
Ntp2509
Rp2510
(dp2511
g18
F0.5
sg19
I52
sg20
g21
((dp2512
I00
I51
sI01
I1
stp2513
Rp2514
sg25
I2
sg26
F53.0
sbs(g9
Vcontains(michael)
p2515
tp2516
g0
(g14
g2
Ntp2517
Rp2518
(dp2519
g18
F0.5
sg19
I46
sg20
g21
((dp2520
I00
I45
sI01
I1
stp2521
Rp2522
sg25
I2
sg26
F47.0
sbs(g8
Vcontains(coin)
p2523
tp2524
g0
(g14
g2
Ntp2525
Rp2526
(dp2527
g18
F0.5
sg19
I52
sg20
g21
((dp2528
I00
I51
sI01
I1
stp2529
Rp2530
sg25
I2
sg26
F53.0
sbs(g8
Vcontains(getti)
p2531
tp2532
g0
(g14
g2
Ntp2533
Rp2534
(dp2535
g18
F0.5
sg19
I52
sg20
g21
((dp2536
I00
I51
sI01
I1
stp2537
Rp2538
sg25
I2
sg26
F53.0
sbs(g8
Vcontains(subtl)
p2539
tp2540
g0
(g14
g2
Ntp2541
Rp2542
(dp2543
g18
F0.5
sg19
I52
sg20
g21
((dp2544
I00
I52
stp2545
Rp2546
sg25
I2
sg26
F53.0
sbs(g9
Vcontains(reign)
p2547
tp2548
g0
(g14
g2
Ntp2549
Rp2550
(dp2551
g18
F0.5
sg19
I46
sg20
g21
((dp2552
I00
I45
sI01
I1
stp2553
Rp2554
sg25
I2
sg26
F47.0
sbs(g9
Vcontains(alton)
p2555
tp2556
g0
(g14
g2
Ntp2557
Rp2558
(dp2559
g18
F0.5
sg19
I46
sg20
g21
((dp2560
I00
I45
sI01
I1
stp2561
Rp2562
sg25
I2
sg26
F47.0
sbs(g9
Vcontains(not_merg)
p2563
tp2564
g0
(g14
g2
Ntp2565
Rp2566
(dp2567
g18
F0.5
sg19
I46
sg20
g21
((dp2568
I00
I45
sI01
I1
stp2569
Rp2570
sg25
I2
sg26
F47.0
sbs(g9
Vcontains(subtl)
p2571
tp2572
g0
(g14
g2
Ntp2573
Rp2574
(dp2575
g18
F0.5
sg19
I46
sg20
g21
((dp2576
I00
I45
sI01
I1
stp2577
Rp2578
sg25
I2
sg26
F47.0
sbs(g8
Vcontains(not_dec)
p2579
tp2580
g0
(g14
g2
Ntp2581
Rp2582
(dp2583
g18
F0.5
sg19
I52
sg20
g21
((dp2584
I00
I51
sI01
I1
stp2585
Rp2586
sg25
I2
sg26
F53.0
sbs(g8
Vcontains(not_eld)
p2587
tp2588
g0
(g14
g2
Ntp2589
Rp2590
(dp2591
g18
F0.5
sg19
I52
sg20
g21
((dp2592
I00
I51
sI01
I1
stp2593
Rp2594
sg25
I2
sg26
F53.0
sbs(g9
Vcontains(believ)
p2595
tp2596
g0
(g14
g2
Ntp2597
Rp2598
(dp2599
g18
F0.5
sg19
I46
sg20
g21
((dp2600
I00
I44
sI01
I2
stp2601
Rp2602
sg25
I2
sg26
F47.0
sbs(g9
Vcontains(biggest)
p2603
tp2604
g0
(g14
g2
Ntp2605
Rp2606
(dp2607
g18
F0.5
sg19
I46
sg20
g21
((dp2608
I00
I45
sI01
I1
stp2609
Rp2610
sg25
I2
sg26
F47.0
sbs(g9
Vcontains(wire)
p2611
tp2612
g0
(g14
g2
Ntp2613
Rp2614
(dp2615
g18
F0.5
sg19
I46
sg20
g21
((dp2616
I00
I46
stp2617
Rp2618
sg25
I2
sg26
F47.0
sbs(g8
Vcontains(marin)
p2619
tp2620
g0
(g14
g2
Ntp2621
Rp2622
(dp2623
g18
F0.5
sg19
I52
sg20
g21
((dp2624
I00
I52
stp2625
Rp2626
sg25
I2
sg26
F53.0
sbs(g9
Vcontains(confirm)
p2627
tp2628
g0
(g14
g2
Ntp2629
Rp2630
(dp2631
g18
F0.5
sg19
I46
sg20
g21
((dp2632
I00
I45
sI01
I1
stp2633
Rp2634
sg25
I2
sg26
F47.0
sbs(g9
Vcontains(hour)
p2635
tp2636
g0
(g14
g2
Ntp2637
Rp2638
(dp2639
g18
F0.5
sg19
I46
sg20
g21
((dp2640
I00
I45
sI01
I1
stp2641
Rp2642
sg25
I2
sg26
F47.0
sbs(g9
Vcontains(vote)
p2643
tp2644
g0
(g14
g2
Ntp2645
Rp2646
(dp2647
g18
F0.5
sg19
I46
sg20
g21
((dp2648
I00
I46
stp2649
Rp2650
sg25
I2
sg26
F47.0
sbs(g8
Vcontains(quot)
p2651
tp2652
g0
(g14
g2
Ntp2653
Rp2654
(dp2655
g18
F0.5
sg19
I52
sg20
g21
((dp2656
I00
I52
stp2657
Rp2658
sg25
I2
sg26
F53.0
sbs(g8
Vcontains(lyin)
p2659
tp2660
g0
(g14
g2
Ntp2661
Rp2662
(dp2663
g18
F0.5
sg19
I52
sg20
g21
((dp2664
I00
I51
sI01
I1
stp2665
Rp2666
sg25
I2
sg26
F53.0
sbs(g8
Vcontains(human)
p2667
tp2668
g0
(g14
g2
Ntp2669
Rp2670
(dp2671
g18
F0.5
sg19
I52
sg20
g21
((dp2672
I00
I51
sI01
I1
stp2673
Rp2674
sg25
I2
sg26
F53.0
sbs(g9
Vcontains(isi)
p2675
tp2676
g0
(g14
g2
Ntp2677
Rp2678
(dp2679
g18
F0.5
sg19
I46
sg20
g21
((dp2680
I00
I45
sI01
I1
stp2681
Rp2682
sg25
I2
sg26
F47.0
sbs(g8
Vcontains(involv)
p2683
tp2684
g0
(g14
g2
Ntp2685
Rp2686
(dp2687
g18
F0.5
sg19
I52
sg20
g21
((dp2688
I00
I52
stp2689
Rp2690
sg25
I2
sg26
F53.0
sbs(g8
Vcontains(million)
p2691
tp2692
g0
(g14
g2
Ntp2693
Rp2694
(dp2695
g18
F0.5
sg19
I52
sg20
g21
((dp2696
I00
I51
sI01
I1
stp2697
Rp2698
sg25
I2
sg26
F53.0
sbs(g8
Vcontains(trust)
p2699
tp2700
g0
(g14
g2
Ntp2701
Rp2702
(dp2703
g18
F0.5
sg19
I52
sg20
g21
((dp2704
I00
I52
stp2705
Rp2706
sg25
I2
sg26
F53.0
sbs(g9
Vcontains(phrase)
p2707
tp2708
g0
(g14
g2
Ntp2709
Rp2710
(dp2711
g18
F0.5
sg19
I46
sg20
g21
((dp2712
I00
I46
stp2713
Rp2714
sg25
I2
sg26
F47.0
sbs(g8
Vcontains(problem)
p2715
tp2716
g0
(g14
g2
Ntp2717
Rp2718
(dp2719
g18
F0.5
sg19
I52
sg20
g21
((dp2720
I00
I52
stp2721
Rp2722
sg25
I2
sg26
F53.0
sbs(g8
Vcontains(smear)
p2723
tp2724
g0
(g14
g2
Ntp2725
Rp2726
(dp2727
g18
F0.5
sg19
I52
sg20
g21
((dp2728
I00
I52
stp2729
Rp2730
sg25
I2
sg26
F53.0
sbs(g8
Vcontains(not_mak)
p2731
tp2732
g0
(g14
g2
Ntp2733
Rp2734
(dp2735
g18
F0.5
sg19
I52
sg20
g21
((dp2736
I00
I51
sI01
I1
stp2737
Rp2738
sg25
I2
sg26
F53.0
sbs(g9
Vcontains(q)
p2739
tp2740
g0
(g14
g2
Ntp2741
Rp2742
(dp2743
g18
F0.5
sg19
I46
sg20
g21
((dp2744
I00
I45
sI01
I1
stp2745
Rp2746
sg25
I2
sg26
F47.0
sbs(g9
Vcontains(not_amend)
p2747
tp2748
g0
(g14
g2
Ntp2749
Rp2750
(dp2751
g18
F0.5
sg19
I46
sg20
g21
((dp2752
I00
I46
stp2753
Rp2754
sg25
I2
sg26
F47.0
sbs(g8
Vcontains(garbag)
p2755
tp2756
g0
(g14
g2
Ntp2757
Rp2758
(dp2759
g18
F0.5
sg19
I52
sg20
g21
((dp2760
I00
I51
sI01
I1
stp2761
Rp2762
sg25
I2
sg26
F53.0
sbs(g9
Vcontains(appoint)
p2763
tp2764
g0
(g14
g2
Ntp2765
Rp2766
(dp2767
g18
F0.5
sg19
I46
sg20
g21
((dp2768
I00
I46
stp2769
Rp2770
sg25
I2
sg26
F47.0
sbs(g8
Vcontains(center)
p2771
tp2772
g0
(g14
g2
Ntp2773
Rp2774
(dp2775
g18
F0.5
sg19
I52
sg20
g21
((dp2776
I00
I51
sI01
I1
stp2777
Rp2778
sg25
I2
sg26
F53.0
sbs(g8
Vcontains(must)
p2779
tp2780
g0
(g14
g2
Ntp2781
Rp2782
(dp2783
g18
F0.5
sg19
I52
sg20
g21
((dp2784
I00
I51
sI01
I1
stp2785
Rp2786
sg25
I2
sg26
F53.0
sbs(g9
Vcontains(deliv)
p2787
tp2788
g0
(g14
g2
Ntp2789
Rp2790
(dp2791
g18
F0.5
sg19
I46
sg20
g21
((dp2792
I00
I46
stp2793
Rp2794
sg25
I2
sg26
F47.0
sbs(g8
Vcontains(video)
p2795
tp2796
g0
(g14
g2
Ntp2797
Rp2798
(dp2799
g18
F0.5
sg19
I52
sg20
g21
((dp2800
I00
I52
stp2801
Rp2802
sg25
I2
sg26
F53.0
sbs(g9
Vcontains(told)
p2803
tp2804
g0
(g14
g2
Ntp2805
Rp2806
(dp2807
g18
F0.5
sg19
I46
sg20
g21
((dp2808
I00
I46
stp2809
Rp2810
sg25
I2
sg26
F47.0
sbs(g8
Vcontains(reign)
p2811
tp2812
g0
(g14
g2
Ntp2813
Rp2814
(dp2815
g18
F0.5
sg19
I52
sg20
g21
((dp2816
I00
I52
stp2817
Rp2818
sg25
I2
sg26
F53.0
sbs(g8
Vcontains(fact)
p2819
tp2820
g0
(g14
g2
Ntp2821
Rp2822
(dp2823
g18
F0.5
sg19
I52
sg20
g21
((dp2824
I00
I51
sI01
I1
stp2825
Rp2826
sg25
I2
sg26
F53.0
sbs(g8
Vcontains(support)
p2827
tp2828
g0
(g14
g2
Ntp2829
Rp2830
(dp2831
g18
F0.5
sg19
I52
sg20
g21
((dp2832
I00
I47
sI01
I5
stp2833
Rp2834
sg25
I2
sg26
F53.0
sbs(g9
Vcontains(violenc)
p2835
tp2836
g0
(g14
g2
Ntp2837
Rp2838
(dp2839
g18
F0.5
sg19
I46
sg20
g21
((dp2840
I00
I45
sI01
I1
stp2841
Rp2842
sg25
I2
sg26
F47.0
sbs(g8
Vcontains(good)
p2843
tp2844
g0
(g14
g2
Ntp2845
Rp2846
(dp2847
g18
F0.5
sg19
I52
sg20
g21
((dp2848
I00
I51
sI01
I1
stp2849
Rp2850
sg25
I2
sg26
F53.0
sbs(g8
Vcontains(truth)
p2851
tp2852
g0
(g14
g2
Ntp2853
Rp2854
(dp2855
g18
F0.5
sg19
I52
sg20
g21
((dp2856
I00
I52
stp2857
Rp2858
sg25
I2
sg26
F53.0
sbs(g8
Vcontains(lie)
p2859
tp2860
g0
(g14
g2
Ntp2861
Rp2862
(dp2863
g18
F0.5
sg19
I52
sg20
g21
((dp2864
I00
I52
stp2865
Rp2866
sg25
I2
sg26
F53.0
sbs(g9
Vcontains(true)
p2867
tp2868
g0
(g14
g2
Ntp2869
Rp2870
(dp2871
g18
F0.5
sg19
I46
sg20
g21
((dp2872
I00
I46
stp2873
Rp2874
sg25
I2
sg26
F47.0
sbs(g9
Vcontains(poll)
p2875
tp2876
g0
(g14
g2
Ntp2877
Rp2878
(dp2879
g18
F0.5
sg19
I46
sg20
g21
((dp2880
I00
I45
sI01
I1
stp2881
Rp2882
sg25
I2
sg26
F47.0
sbs(g8
Vcontains(move)
p2883
tp2884
g0
(g14
g2
Ntp2885
Rp2886
(dp2887
g18
F0.5
sg19
I52
sg20
g21
((dp2888
I00
I52
stp2889
Rp2890
sg25
I2
sg26
F53.0
sbs(g8
Vcontains(seek)
p2891
tp2892
g0
(g14
g2
Ntp2893
Rp2894
(dp2895
g18
F0.5
sg19
I52
sg20
g21
((dp2896
I00
I51
sI01
I1
stp2897
Rp2898
sg25
I2
sg26
F53.0
sbs(g8
Vcontains(stupid)
p2899
tp2900
g0
(g14
g2
Ntp2901
Rp2902
(dp2903
g18
F0.5
sg19
I52
sg20
g21
((dp2904
I00
I52
stp2905
Rp2906
sg25
I2
sg26
F53.0
sbs(g8
Vcontains(plan)
p2907
tp2908
g0
(g14
g2
Ntp2909
Rp2910
(dp2911
g18
F0.5
sg19
I52
sg20
g21
((dp2912
I00
I50
sI01
I2
stp2913
Rp2914
sg25
I2
sg26
F53.0
sbs(g9
Vcontains(fund)
p2915
tp2916
g0
(g14
g2
Ntp2917
Rp2918
(dp2919
g18
F0.5
sg19
I46
sg20
g21
((dp2920
I00
I46
stp2921
Rp2922
sg25
I2
sg26
F47.0
sbs(g8
Vcontains(gonna)
p2923
tp2924
g0
(g14
g2
Ntp2925
Rp2926
(dp2927
g18
F0.5
sg19
I52
sg20
g21
((dp2928
I00
I51
sI01
I1
stp2929
Rp2930
sg25
I2
sg26
F53.0
sbs(g9
Vcontains(box)
p2931
tp2932
g0
(g14
g2
Ntp2933
Rp2934
(dp2935
g18
F0.5
sg19
I46
sg20
g21
((dp2936
I00
I45
sI01
I1
stp2937
Rp2938
sg25
I2
sg26
F47.0
sbs(g9
Vcontains(not_parti)
p2939
tp2940
g0
(g14
g2
Ntp2941
Rp2942
(dp2943
g18
F0.5
sg19
I46
sg20
g21
((dp2944
I00
I46
stp2945
Rp2946
sg25
I2
sg26
F47.0
sbs(g9
Vcontains(bcuz)
p2947
tp2948
g0
(g14
g2
Ntp2949
Rp2950
(dp2951
g18
F0.5
sg19
I46
sg20
g21
((dp2952
I00
I45
sI01
I1
stp2953
Rp2954
sg25
I2
sg26
F47.0
sbs(g8
Vcontains(not_whit)
p2955
tp2956
g0
(g14
g2
Ntp2957
Rp2958
(dp2959
g18
F0.5
sg19
I52
sg20
g21
((dp2960
I00
I51
sI01
I1
stp2961
Rp2962
sg25
I2
sg26
F53.0
sbs(g8
Vcontains(death)
p2963
tp2964
g0
(g14
g2
Ntp2965
Rp2966
(dp2967
g18
F0.5
sg19
I52
sg20
g21
((dp2968
I00
I51
sI01
I1
stp2969
Rp2970
sg25
I2
sg26
F53.0
sbs(g8
Vcontains(non)
p2971
tp2972
g0
(g14
g2
Ntp2973
Rp2974
(dp2975
g18
F0.5
sg19
I52
sg20
g21
((dp2976
I00
I51
sI01
I1
stp2977
Rp2978
sg25
I2
sg26
F53.0
sbs(g9
Vcontains(not_whit)
p2979
tp2980
g0
(g14
g2
Ntp2981
Rp2982
(dp2983
g18
F0.5
sg19
I46
sg20
g21
((dp2984
I00
I46
stp2985
Rp2986
sg25
I2
sg26
F47.0
sbs(g9
Vcontains(not_indiffer)
p2987
tp2988
g0
(g14
g2
Ntp2989
Rp2990
(dp2991
g18
F0.5
sg19
I46
sg20
g21
((dp2992
I00
I45
sI01
I1
stp2993
Rp2994
sg25
I2
sg26
F47.0
sbs(g8
Vcontains(top)
p2995
tp2996
g0
(g14
g2
Ntp2997
Rp2998
(dp2999
g18
F0.5
sg19
I52
sg20
g21
((dp3000
I00
I51
sI01
I1
stp3001
Rp3002
sg25
I2
sg26
F53.0
sbs(g9
Vcontains(effect)
p3003
tp3004
g0
(g14
g2
Ntp3005
Rp3006
(dp3007
g18
F0.5
sg19
I46
sg20
g21
((dp3008
I00
I46
stp3009
Rp3010
sg25
I2
sg26
F47.0
sbs(g8
Vcontains(give)
p3011
tp3012
g0
(g14
g2
Ntp3013
Rp3014
(dp3015
g18
F0.5
sg19
I52
sg20
g21
((dp3016
I00
I52
stp3017
Rp3018
sg25
I2
sg26
F53.0
sbs(g8
Vcontains(brown)
p3019
tp3020
g0
(g14
g2
Ntp3021
Rp3022
(dp3023
g18
F0.5
sg19
I52
sg20
g21
((dp3024
I00
I51
sI01
I1
stp3025
Rp3026
sg25
I2
sg26
F53.0
sbs(g9
Vcontains(foundat)
p3027
tp3028
g0
(g14
g2
Ntp3029
Rp3030
(dp3031
g18
F0.5
sg19
I46
sg20
g21
((dp3032
I00
I44
sI01
I2
stp3033
Rp3034
sg25
I2
sg26
F47.0
sbs(g9
Vcontains(grand)
p3035
tp3036
g0
(g14
g2
Ntp3037
Rp3038
(dp3039
g18
F0.5
sg19
I46
sg20
g21
((dp3040
I00
I46
stp3041
Rp3042
sg25
I2
sg26
F47.0
sbs(g8
Vcontains(suprem)
p3043
tp3044
g0
(g14
g2
Ntp3045
Rp3046
(dp3047
g18
F0.5
sg19
I52
sg20
g21
((dp3048
I00
I51
sI01
I1
stp3049
Rp3050
sg25
I2
sg26
F53.0
sbs(g9
Vcontains(life)
p3051
tp3052
g0
(g14
g2
Ntp3053
Rp3054
(dp3055
g18
F0.5
sg19
I46
sg20
g21
((dp3056
I00
I45
sI01
I1
stp3057
Rp3058
sg25
I2
sg26
F47.0
sbs(g8
Vcontains(gowdi)
p3059
tp3060
g0
(g14
g2
Ntp3061
Rp3062
(dp3063
g18
F0.5
sg19
I52
sg20
g21
((dp3064
I00
I52
stp3065
Rp3066
sg25
I2
sg26
F53.0
sbs(g8
Vcontains(not_sens)
p3067
tp3068
g0
(g14
g2
Ntp3069
Rp3070
(dp3071
g18
F0.5
sg19
I52
sg20
g21
((dp3072
I00
I51
sI01
I1
stp3073
Rp3074
sg25
I2
sg26
F53.0
sbs(g8
Vcontains(not_indiffer)
p3075
tp3076
g0
(g14
g2
Ntp3077
Rp3078
(dp3079
g18
F0.5
sg19
I52
sg20
g21
((dp3080
I00
I52
stp3081
Rp3082
sg25
I2
sg26
F53.0
sbs(g8
Vcontains(public)
p3083
tp3084
g0
(g14
g2
Ntp3085
Rp3086
(dp3087
g18
F0.5
sg19
I52
sg20
g21
((dp3088
I00
I51
sI01
I1
stp3089
Rp3090
sg25
I2
sg26
F53.0
sbs(g9
Vcontains(not_tank)
p3091
tp3092
g0
(g14
g2
Ntp3093
Rp3094
(dp3095
g18
F0.5
sg19
I46
sg20
g21
((dp3096
I00
I46
stp3097
Rp3098
sg25
I2
sg26
F47.0
sbs(g8
Vcontains(scheme)
p3099
tp3100
g0
(g14
g2
Ntp3101
Rp3102
(dp3103
g18
F0.5
sg19
I52
sg20
g21
((dp3104
I00
I52
stp3105
Rp3106
sg25
I2
sg26
F53.0
sbs(g8
Vcontains(danger)
p3107
tp3108
g0
(g14
g2
Ntp3109
Rp3110
(dp3111
g18
F0.5
sg19
I52
sg20
g21
((dp3112
I00
I52
stp3113
Rp3114
sg25
I2
sg26
F53.0
sbs(g8
Vcontains(thank)
p3115
tp3116
g0
(g14
g2
Ntp3117
Rp3118
(dp3119
g18
F0.5
sg19
I52
sg20
g21
((dp3120
I00
I52
stp3121
Rp3122
sg25
I2
sg26
F53.0
sbs(g8
Vcontains(not_truth)
p3123
tp3124
g0
(g14
g2
Ntp3125
Rp3126
(dp3127
g18
F0.5
sg19
I52
sg20
g21
((dp3128
I00
I52
stp3129
Rp3130
sg25
I2
sg26
F53.0
sbs(g8
Vcontains(fix)
p3131
tp3132
g0
(g14
g2
Ntp3133
Rp3134
(dp3135
g18
F0.5
sg19
I52
sg20
g21
((dp3136
I00
I52
stp3137
Rp3138
sg25
I2
sg26
F53.0
sbs(g8
Vcontains(unbeli)
p3139
tp3140
g0
(g14
g2
Ntp3141
Rp3142
(dp3143
g18
F0.5
sg19
I52
sg20
g21
((dp3144
I00
I51
sI01
I1
stp3145
Rp3146
sg25
I2
sg26
F53.0
sbs(g8
Vcontains(pack)
p3147
tp3148
g0
(g14
g2
Ntp3149
Rp3150
(dp3151
g18
F0.5
sg19
I52
sg20
g21
((dp3152
I00
I52
stp3153
Rp3154
sg25
I2
sg26
F53.0
sbs(g8
Vcontains(not_comey)
p3155
tp3156
g0
(g14
g2
Ntp3157
Rp3158
(dp3159
g18
F0.5
sg19
I52
sg20
g21
((dp3160
I00
I52
stp3161
Rp3162
sg25
I2
sg26
F53.0
sbs(g9
Vcontains(theori)
p3163
tp3164
g0
(g14
g2
Ntp3165
Rp3166
(dp3167
g18
F0.5
sg19
I46
sg20
g21
((dp3168
I00
I44
sI01
I2
stp3169
Rp3170
sg25
I2
sg26
F47.0
sbs(g9
Vcontains(comey)
p3171
tp3172
g0
(g14
g2
Ntp3173
Rp3174
(dp3175
g18
F0.5
sg19
I46
sg20
g21
((dp3176
I00
I44
sI01
I2
stp3177
Rp3178
sg25
I2
sg26
F47.0
sbs(g8
Vcontains(not_cas)
p3179
tp3180
g0
(g14
g2
Ntp3181
Rp3182
(dp3183
g18
F0.5
sg19
I52
sg20
g21
((dp3184
I00
I51
sI01
I1
stp3185
Rp3186
sg25
I2
sg26
F53.0
sbs(g9
Vcontains(fix)
p3187
tp3188
g0
(g14
g2
Ntp3189
Rp3190
(dp3191
g18
F0.5
sg19
I46
sg20
g21
((dp3192
I00
I45
sI01
I1
stp3193
Rp3194
sg25
I2
sg26
F47.0
sbs(g9
Vcontains(email)
p3195
tp3196
g0
(g14
g2
Ntp3197
Rp3198
(dp3199
g18
F0.5
sg19
I46
sg20
g21
((dp3200
I00
I44
sI01
I2
stp3201
Rp3202
sg25
I2
sg26
F47.0
sbs(g9
Vcontains(career)
p3203
tp3204
g0
(g14
g2
Ntp3205
Rp3206
(dp3207
g18
F0.5
sg19
I46
sg20
g21
((dp3208
I00
I45
sI01
I1
stp3209
Rp3210
sg25
I2
sg26
F47.0
sbs(g9
Vcontains(save)
p3211
tp3212
g0
(g14
g2
Ntp3213
Rp3214
(dp3215
g18
F0.5
sg19
I46
sg20
g21
((dp3216
I00
I45
sI01
I1
stp3217
Rp3218
sg25
I2
sg26
F47.0
sbs(g9
Vcontains(love)
p3219
tp3220
g0
(g14
g2
Ntp3221
Rp3222
(dp3223
g18
F0.5
sg19
I46
sg20
g21
((dp3224
I00
I45
sI01
I1
stp3225
Rp3226
sg25
I2
sg26
F47.0
sbs(g8
Vcontains(donat)
p3227
tp3228
g0
(g14
g2
Ntp3229
Rp3230
(dp3231
g18
F0.5
sg19
I52
sg20
g21
((dp3232
I00
I52
stp3233
Rp3234
sg25
I2
sg26
F53.0
sbs(g8
Vcontains(q)
p3235
tp3236
g0
(g14
g2
Ntp3237
Rp3238
(dp3239
g18
F0.5
sg19
I52
sg20
g21
((dp3240
I00
I52
stp3241
Rp3242
sg25
I2
sg26
F53.0
sbs(g9
Vcontains(ppl)
p3243
tp3244
g0
(g14
g2
Ntp3245
Rp3246
(dp3247
g18
F0.5
sg19
I46
sg20
g21
((dp3248
I00
I45
sI01
I1
stp3249
Rp3250
sg25
I2
sg26
F47.0
sbs(g8
Vcontains(theyr)
p3251
tp3252
g0
(g14
g2
Ntp3253
Rp3254
(dp3255
g18
F0.5
sg19
I52
sg20
g21
((dp3256
I00
I51
sI01
I1
stp3257
Rp3258
sg25
I2
sg26
F53.0
sbs(g9
Vcontains(sander)
p3259
tp3260
g0
(g14
g2
Ntp3261
Rp3262
(dp3263
g18
F0.5
sg19
I46
sg20
g21
((dp3264
I00
I46
stp3265
Rp3266
sg25
I2
sg26
F47.0
sbs(g8
Vcontains(barack)
p3267
tp3268
g0
(g14
g2
Ntp3269
Rp3270
(dp3271
g18
F0.5
sg19
I52
sg20
g21
((dp3272
I00
I51
sI01
I1
stp3273
Rp3274
sg25
I2
sg26
F53.0
sbs(g9
Vcontains(stay)
p3275
tp3276
g0
(g14
g2
Ntp3277
Rp3278
(dp3279
g18
F0.5
sg19
I46
sg20
g21
((dp3280
I00
I46
stp3281
Rp3282
sg25
I2
sg26
F47.0
sbs(g9
Vcontains(not_humanitarian)
p3283
tp3284
g0
(g14
g2
Ntp3285
Rp3286
(dp3287
g18
F0.5
sg19
I46
sg20
g21
((dp3288
I00
I46
stp3289
Rp3290
sg25
I2
sg26
F47.0
sbs(g8
Vcontains(wall)
p3291
tp3292
g0
(g14
g2
Ntp3293
Rp3294
(dp3295
g18
F0.5
sg19
I52
sg20
g21
((dp3296
I00
I52
stp3297
Rp3298
sg25
I2
sg26
F53.0
sbs(g9
Vcontains(parti)
p3299
tp3300
g0
(g14
g2
Ntp3301
Rp3302
(dp3303
g18
F0.5
sg19
I46
sg20
g21
((dp3304
I00
I45
sI01
I1
stp3305
Rp3306
sg25
I2
sg26
F47.0
sbs(g9
Vcontains(bros)
p3307
tp3308
g0
(g14
g2
Ntp3309
Rp3310
(dp3311
g18
F0.5
sg19
I46
sg20
g21
((dp3312
I00
I45
sI01
I1
stp3313
Rp3314
sg25
I2
sg26
F47.0
sbs(g8
Vcontains(crook)
p3315
tp3316
g0
(g14
g2
Ntp3317
Rp3318
(dp3319
g18
F0.5
sg19
I52
sg20
g21
((dp3320
I00
I51
sI01
I1
stp3321
Rp3322
sg25
I2
sg26
F53.0
sbs(g9
Vcontains(top)
p3323
tp3324
g0
(g14
g2
Ntp3325
Rp3326
(dp3327
g18
F0.5
sg19
I46
sg20
g21
((dp3328
I00
I46
stp3329
Rp3330
sg25
I2
sg26
F47.0
sbs(g8
Vcontains(not_humanitarian)
p3331
tp3332
g0
(g14
g2
Ntp3333
Rp3334
(dp3335
g18
F0.5
sg19
I52
sg20
g21
((dp3336
I00
I51
sI01
I1
stp3337
Rp3338
sg25
I2
sg26
F53.0
sbs(g8
Vcontains(go)
p3339
tp3340
g0
(g14
g2
Ntp3341
Rp3342
(dp3343
g18
F0.5
sg19
I52
sg20
g21
((dp3344
I00
I51
sI01
I1
stp3345
Rp3346
sg25
I2
sg26
F53.0
sbs(g9
Vcontains(happen)
p3347
tp3348
g0
(g14
g2
Ntp3349
Rp3350
(dp3351
g18
F0.5
sg19
I46
sg20
g21
((dp3352
I00
I46
stp3353
Rp3354
sg25
I2
sg26
F47.0
sbs(g9
Vcontains(pray)
p3355
tp3356
g0
(g14
g2
Ntp3357
Rp3358
(dp3359
g18
F0.5
sg19
I46
sg20
g21
((dp3360
I00
I46
stp3361
Rp3362
sg25
I2
sg26
F47.0
sbs(g8
Vcontains(yall)
p3363
tp3364
g0
(g14
g2
Ntp3365
Rp3366
(dp3367
g18
F0.5
sg19
I52
sg20
g21
((dp3368
I00
I51
sI01
I1
stp3369
Rp3370
sg25
I2
sg26
F53.0
sbs(g8
Vcontains(page)
p3371
tp3372
g0
(g14
g2
Ntp3373
Rp3374
(dp3375
g18
F0.5
sg19
I52
sg20
g21
((dp3376
I00
I51
sI01
I1
stp3377
Rp3378
sg25
I2
sg26
F53.0
sbs(g8
Vcontains(bet)
p3379
tp3380
g0
(g14
g2
Ntp3381
Rp3382
(dp3383
g18
F0.5
sg19
I52
sg20
g21
((dp3384
I00
I51
sI01
I1
stp3385
Rp3386
sg25
I2
sg26
F53.0
sbs(g8
Vcontains(card)
p3387
tp3388
g0
(g14
g2
Ntp3389
Rp3390
(dp3391
g18
F0.5
sg19
I52
sg20
g21
((dp3392
I00
I51
sI01
I1
stp3393
Rp3394
sg25
I2
sg26
F53.0
sbs(g9
Vcontains(break)
p3395
tp3396
g0
(g14
g2
Ntp3397
Rp3398
(dp3399
g18
F0.5
sg19
I46
sg20
g21
((dp3400
I00
I43
sI01
I3
stp3401
Rp3402
sg25
I2
sg26
F47.0
sbs(g8
Vcontains(tank)
p3403
tp3404
g0
(g14
g2
Ntp3405
Rp3406
(dp3407
g18
F0.5
sg19
I52
sg20
g21
((dp3408
I00
I51
sI01
I1
stp3409
Rp3410
sg25
I2
sg26
F53.0
sbs(g8
Vcontains(keep)
p3411
tp3412
g0
(g14
g2
Ntp3413
Rp3414
(dp3415
g18
F0.5
sg19
I52
sg20
g21
((dp3416
I00
I51
sI01
I1
stp3417
Rp3418
sg25
I2
sg26
F53.0
sbs(g8
Vcontains(togeth)
p3419
tp3420
g0
(g14
g2
Ntp3421
Rp3422
(dp3423
g18
F0.5
sg19
I52
sg20
g21
((dp3424
I00
I51
sI01
I1
stp3425
Rp3426
sg25
I2
sg26
F53.0
sbs(g9
Vcontains(doj)
p3427
tp3428
g0
(g14
g2
Ntp3429
Rp3430
(dp3431
g18
F0.5
sg19
I46
sg20
g21
((dp3432
I00
I46
stp3433
Rp3434
sg25
I2
sg26
F47.0
sbs(g9
Vcontains(unbeli)
p3435
tp3436
g0
(g14
g2
Ntp3437
Rp3438
(dp3439
g18
F0.5
sg19
I46
sg20
g21
((dp3440
I00
I46
stp3441
Rp3442
sg25
I2
sg26
F47.0
sbs(g9
Vcontains(slam)
p3443
tp3444
g0
(g14
g2
Ntp3445
Rp3446
(dp3447
g18
F0.5
sg19
I46
sg20
g21
((dp3448
I00
I46
stp3449
Rp3450
sg25
I2
sg26
F47.0
sbs(g8
Vcontains(not_part)
p3451
tp3452
g0
(g14
g2
Ntp3453
Rp3454
(dp3455
g18
F0.5
sg19
I52
sg20
g21
((dp3456
I00
I51
sI01
I1
stp3457
Rp3458
sg25
I2
sg26
F53.0
sbs(g9
Vcontains(run)
p3459
tp3460
g0
(g14
g2
Ntp3461
Rp3462
(dp3463
g18
F0.5
sg19
I46
sg20
g21
((dp3464
I00
I45
sI01
I1
stp3465
Rp3466
sg25
I2
sg26
F47.0
sbs(g9
Vcontains(oath)
p3467
tp3468
g0
(g14
g2
Ntp3469
Rp3470
(dp3471
g18
F0.5
sg19
I46
sg20
g21
((dp3472
I00
I45
sI01
I1
stp3473
Rp3474
sg25
I2
sg26
F47.0
sbs(g9
Vcontains(not_cas)
p3475
tp3476
g0
(g14
g2
Ntp3477
Rp3478
(dp3479
g18
F0.5
sg19
I46
sg20
g21
((dp3480
I00
I46
stp3481
Rp3482
sg25
I2
sg26
F47.0
sbs(g8
Vcontains(differ)
p3483
tp3484
g0
(g14
g2
Ntp3485
Rp3486
(dp3487
g18
F0.5
sg19
I52
sg20
g21
((dp3488
I00
I51
sI01
I1
stp3489
Rp3490
sg25
I2
sg26
F53.0
sbs(g8
Vcontains(expect)
p3491
tp3492
g0
(g14
g2
Ntp3493
Rp3494
(dp3495
g18
F0.5
sg19
I52
sg20
g21
((dp3496
I00
I52
stp3497
Rp3498
sg25
I2
sg26
F53.0
sbs(g8
Vcontains(pit)
p3499
tp3500
g0
(g14
g2
Ntp3501
Rp3502
(dp3503
g18
F0.5
sg19
I52
sg20
g21
((dp3504
I00
I51
sI01
I1
stp3505
Rp3506
sg25
I2
sg26
F53.0
sbs(g8
Vcontains(govt)
p3507
tp3508
g0
(g14
g2
Ntp3509
Rp3510
(dp3511
g18
F0.5
sg19
I52
sg20
g21
((dp3512
I00
I52
stp3513
Rp3514
sg25
I2
sg26
F53.0
sbs(g8
Vcontains(stand)
p3515
tp3516
g0
(g14
g2
Ntp3517
Rp3518
(dp3519
g18
F0.5
sg19
I52
sg20
g21
((dp3520
I00
I51
sI01
I1
stp3521
Rp3522
sg25
I2
sg26
F53.0
sbs(g8
Vcontains(effect)
p3523
tp3524
g0
(g14
g2
Ntp3525
Rp3526
(dp3527
g18
F0.5
sg19
I52
sg20
g21
((dp3528
I00
I51
sI01
I1
stp3529
Rp3530
sg25
I2
sg26
F53.0
sbs(g8
Vcontains(hs)
p3531
tp3532
g0
(g14
g2
Ntp3533
Rp3534
(dp3535
g18
F0.5
sg19
I52
sg20
g21
((dp3536
I00
I52
stp3537
Rp3538
sg25
I2
sg26
F53.0
sbs(g8
Vcontains(not_hillari)
p3539
tp3540
g0
(g14
g2
Ntp3541
Rp3542
(dp3543
g18
F0.5
sg19
I52
sg20
g21
((dp3544
I00
I49
sI01
I3
stp3545
Rp3546
sg25
I2
sg26
F53.0
sbs(g8
Vcontains(power)
p3547
tp3548
g0
(g14
g2
Ntp3549
Rp3550
(dp3551
g18
F0.5
sg19
I52
sg20
g21
((dp3552
I00
I50
sI01
I2
stp3553
Rp3554
sg25
I2
sg26
F53.0
sbs(g8
Vcontains(elect)
p3555
tp3556
g0
(g14
g2
Ntp3557
Rp3558
(dp3559
g18
F0.5
sg19
I52
sg20
g21
((dp3560
I00
I51
sI01
I1
stp3561
Rp3562
sg25
I2
sg26
F53.0
sbs(g8
Vcontains(alton)
p3563
tp3564
g0
(g14
g2
Ntp3565
Rp3566
(dp3567
g18
F0.5
sg19
I52
sg20
g21
((dp3568
I00
I52
stp3569
Rp3570
sg25
I2
sg26
F53.0
sbs(g9
Vcontains(go)
p3571
tp3572
g0
(g14
g2
Ntp3573
Rp3574
(dp3575
g18
F0.5
sg19
I46
sg20
g21
((dp3576
I00
I46
stp3577
Rp3578
sg25
I2
sg26
F47.0
sbs(g9
Vcontains(us)
p3579
tp3580
g0
(g14
g2
Ntp3581
Rp3582
(dp3583
g18
F0.5
sg19
I46
sg20
g21
((dp3584
I00
I42
sI01
I4
stp3585
Rp3586
sg25
I2
sg26
F47.0
sbs(g8
Vcontains(rig)
p3587
tp3588
g0
(g14
g2
Ntp3589
Rp3590
(dp3591
g18
F0.5
sg19
I52
sg20
g21
((dp3592
I00
I51
sI01
I1
stp3593
Rp3594
sg25
I2
sg26
F53.0
sbs(g9
Vcontains(forc)
p3595
tp3596
g0
(g14
g2
Ntp3597
Rp3598
(dp3599
g18
F0.5
sg19
I46
sg20
g21
((dp3600
I00
I46
stp3601
Rp3602
sg25
I2
sg26
F47.0
sbs(g9
Vcontains(congrat)
p3603
tp3604
g0
(g14
g2
Ntp3605
Rp3606
(dp3607
g18
F0.5
sg19
I46
sg20
g21
((dp3608
I00
I46
stp3609
Rp3610
sg25
I2
sg26
F47.0
sbs(g9
Vcontains(charg)
p3611
tp3612
g0
(g14
g2
Ntp3613
Rp3614
(dp3615
g18
F0.5
sg19
I46
sg20
g21
((dp3616
I00
I46
stp3617
Rp3618
sg25
I2
sg26
F47.0
sbs(g8
Vcontains(court)
p3619
tp3620
g0
(g14
g2
Ntp3621
Rp3622
(dp3623
g18
F0.5
sg19
I52
sg20
g21
((dp3624
I00
I51
sI01
I1
stp3625
Rp3626
sg25
I2
sg26
F53.0
sbs(g8
Vcontains(isra)
p3627
tp3628
g0
(g14
g2
Ntp3629
Rp3630
(dp3631
g18
F0.5
sg19
I52
sg20
g21
((dp3632
I00
I50
sI01
I2
stp3633
Rp3634
sg25
I2
sg26
F53.0
sbs(g9
Vcontains(tri)
p3635
tp3636
g0
(g14
g2
Ntp3637
Rp3638
(dp3639
g18
F0.5
sg19
I46
sg20
g21
((dp3640
I00
I46
stp3641
Rp3642
sg25
I2
sg26
F47.0
sbs(g8
Vcontains(daddi)
p3643
tp3644
g0
(g14
g2
Ntp3645
Rp3646
(dp3647
g18
F0.5
sg19
I52
sg20
g21
((dp3648
I00
I52
stp3649
Rp3650
sg25
I2
sg26
F53.0
sbs(g8
Vcontains(u)
p3651
tp3652
g0
(g14
g2
Ntp3653
Rp3654
(dp3655
g18
F0.5
sg19
I52
sg20
g21
((dp3656
I00
I51
sI01
I1
stp3657
Rp3658
sg25
I2
sg26
F53.0
sbs(g8
Vcontains(colon)
p3659
tp3660
g0
(g14
g2
Ntp3661
Rp3662
(dp3663
g18
F0.5
sg19
I52
sg20
g21
((dp3664
I00
I51
sI01
I1
stp3665
Rp3666
sg25
I2
sg26
F53.0
sbs(g9
Vcontains(human)
p3667
tp3668
g0
(g14
g2
Ntp3669
Rp3670
(dp3671
g18
F0.5
sg19
I46
sg20
g21
((dp3672
I00
I46
stp3673
Rp3674
sg25
I2
sg26
F47.0
sbs(g8
Vcontains(career)
p3675
tp3676
g0
(g14
g2
Ntp3677
Rp3678
(dp3679
g18
F0.5
sg19
I52
sg20
g21
((dp3680
I00
I52
stp3681
Rp3682
sg25
I2
sg26
F53.0
sbs(g8
Vcontains(slam)
p3683
tp3684
g0
(g14
g2
Ntp3685
Rp3686
(dp3687
g18
F0.5
sg19
I52
sg20
g21
((dp3688
I00
I51
sI01
I1
stp3689
Rp3690
sg25
I2
sg26
F53.0
sbs(g9
Vcontains(wiesel)
p3691
tp3692
g0
(g14
g2
Ntp3693
Rp3694
(dp3695
g18
F0.5
sg19
I46
sg20
g21
((dp3696
I00
I45
sI01
I1
stp3697
Rp3698
sg25
I2
sg26
F47.0
sbs(g9
Vcontains(someon)
p3699
tp3700
g0
(g14
g2
Ntp3701
Rp3702
(dp3703
g18
F0.5
sg19
I46
sg20
g21
((dp3704
I00
I45
sI01
I1
stp3705
Rp3706
sg25
I2
sg26
F47.0
sbs(g9
Vcontains(soro)
p3707
tp3708
g0
(g14
g2
Ntp3709
Rp3710
(dp3711
g18
F0.5
sg19
I46
sg20
g21
((dp3712
I00
I45
sI01
I1
stp3713
Rp3714
sg25
I2
sg26
F47.0
sbs(g8
Vcontains(untrustworthi)
p3715
tp3716
g0
(g14
g2
Ntp3717
Rp3718
(dp3719
g18
F0.5
sg19
I52
sg20
g21
((dp3720
I00
I51
sI01
I1
stp3721
Rp3722
sg25
I2
sg26
F53.0
sbs(g8
Vcontains(children)
p3723
tp3724
g0
(g14
g2
Ntp3725
Rp3726
(dp3727
g18
F0.5
sg19
I52
sg20
g21
((dp3728
I00
I49
sI01
I3
stp3729
Rp3730
sg25
I2
sg26
F53.0
sbs(g9
Vcontains(contamin)
p3731
tp3732
g0
(g14
g2
Ntp3733
Rp3734
(dp3735
g18
F0.5
sg19
I46
sg20
g21
((dp3736
I00
I42
sI01
I4
stp3737
Rp3738
sg25
I2
sg26
F47.0
sbs(g8
Vcontains(pm)
p3739
tp3740
g0
(g14
g2
Ntp3741
Rp3742
(dp3743
g18
F0.5
sg19
I52
sg20
g21
((dp3744
I00
I51
sI01
I1
stp3745
Rp3746
sg25
I2
sg26
F53.0
sbs(g8
Vcontains(submit)
p3747
tp3748
g0
(g14
g2
Ntp3749
Rp3750
(dp3751
g18
F0.5
sg19
I52
sg20
g21
((dp3752
I00
I51
sI01
I1
stp3753
Rp3754
sg25
I2
sg26
F53.0
sbs(g8
Vcontains(not_refuge)
p3755
tp3756
g0
(g14
g2
Ntp3757
Rp3758
(dp3759
g18
F0.5
sg19
I52
sg20
g21
((dp3760
I00
I52
stp3761
Rp3762
sg25
I2
sg26
F53.0
sbs(g9
Vcontains(strong)
p3763
tp3764
g0
(g14
g2
Ntp3765
Rp3766
(dp3767
g18
F0.5
sg19
I46
sg20
g21
((dp3768
I00
I46
stp3769
Rp3770
sg25
I2
sg26
F47.0
sbs(g9
Vcontains(thought)
p3771
tp3772
g0
(g14
g2
Ntp3773
Rp3774
(dp3775
g18
F0.5
sg19
I46
sg20
g21
((dp3776
I00
I45
sI01
I1
stp3777
Rp3778
sg25
I2
sg26
F47.0
sbs(g8
Vcontains(aggress)
p3779
tp3780
g0
(g14
g2
Ntp3781
Rp3782
(dp3783
g18
F0.5
sg19
I52
sg20
g21
((dp3784
I00
I51
sI01
I1
stp3785
Rp3786
sg25
I2
sg26
F53.0
sbs(g8
Vcontains(exact)
p3787
tp3788
g0
(g14
g2
Ntp3789
Rp3790
(dp3791
g18
F0.5
sg19
I52
sg20
g21
((dp3792
I00
I51
sI01
I1
stp3793
Rp3794
sg25
I2
sg26
F53.0
sbs(g9
Vcontains(hand)
p3795
tp3796
g0
(g14
g2
Ntp3797
Rp3798
(dp3799
g18
F0.5
sg19
I46
sg20
g21
((dp3800
I00
I45
sI01
I1
stp3801
Rp3802
sg25
I2
sg26
F47.0
sbs(g8
Vcontains(peopl)
p3803
tp3804
g0
(g14
g2
Ntp3805
Rp3806
(dp3807
g18
F0.5
sg19
I52
sg20
g21
((dp3808
I00
I50
sI01
I2
stp3809
Rp3810
sg25
I2
sg26
F53.0
sbs(g9
Vcontains(worth)
p3811
tp3812
g0
(g14
g2
Ntp3813
Rp3814
(dp3815
g18
F0.5
sg19
I46
sg20
g21
((dp3816
I00
I45
sI01
I1
stp3817
Rp3818
sg25
I2
sg26
F47.0
sbs(g9
Vcontains(hq)
p3819
tp3820
g0
(g14
g2
Ntp3821
Rp3822
(dp3823
g18
F0.5
sg19
I46
sg20
g21
((dp3824
I00
I46
stp3825
Rp3826
sg25
I2
sg26
F47.0
sbs(g8
Vcontains(child)
p3827
tp3828
g0
(g14
g2
Ntp3829
Rp3830
(dp3831
g18
F0.5
sg19
I52
sg20
g21
((dp3832
I00
I52
stp3833
Rp3834
sg25
I2
sg26
F53.0
sbs(g8
Vcontains(bad)
p3835
tp3836
g0
(g14
g2
Ntp3837
Rp3838
(dp3839
g18
F0.5
sg19
I52
sg20
g21
((dp3840
I00
I52
stp3841
Rp3842
sg25
I2
sg26
F53.0
sbs(g8
Vcontains(regim)
p3843
tp3844
g0
(g14
g2
Ntp3845
Rp3846
(dp3847
g18
F0.5
sg19
I52
sg20
g21
((dp3848
I00
I51
sI01
I1
stp3849
Rp3850
sg25
I2
sg26
F53.0
sbs(g8
Vcontains(careless)
p3851
tp3852
g0
(g14
g2
Ntp3853
Rp3854
(dp3855
g18
F0.5
sg19
I52
sg20
g21
((dp3856
I00
I51
sI01
I1
stp3857
Rp3858
sg25
I2
sg26
F53.0
sbs(g8
Vcontains(young)
p3859
tp3860
g0
(g14
g2
Ntp3861
Rp3862
(dp3863
g18
F0.5
sg19
I52
sg20
g21
((dp3864
I00
I51
sI01
I1
stp3865
Rp3866
sg25
I2
sg26
F53.0
sbs(g9
Vcontains(not_support)
p3867
tp3868
g0
(g14
g2
Ntp3869
Rp3870
(dp3871
g18
F0.5
sg19
I46
sg20
g21
((dp3872
I00
I46
stp3873
Rp3874
sg25
I2
sg26
F47.0
sbs(g8
Vcontains(made)
p3875
tp3876
g0
(g14
g2
Ntp3877
Rp3878
(dp3879
g18
F0.5
sg19
I52
sg20
g21
((dp3880
I00
I51
sI01
I1
stp3881
Rp3882
sg25
I2
sg26
F53.0
sbs(g8
Vcontains(poll)
p3883
tp3884
g0
(g14
g2
Ntp3885
Rp3886
(dp3887
g18
F0.5
sg19
I52
sg20
g21
((dp3888
I00
I52
stp3889
Rp3890
sg25
I2
sg26
F53.0
sbs(g8
Vcontains(idea)
p3891
tp3892
g0
(g14
g2
Ntp3893
Rp3894
(dp3895
g18
F0.5
sg19
I52
sg20
g21
((dp3896
I00
I49
sI01
I3
stp3897
Rp3898
sg25
I2
sg26
F53.0
sbs(g9
Vcontains(oppos)
p3899
tp3900
g0
(g14
g2
Ntp3901
Rp3902
(dp3903
g18
F0.5
sg19
I46
sg20
g21
((dp3904
I00
I45
sI01
I1
stp3905
Rp3906
sg25
I2
sg26
F47.0
sbs(g9
Vcontains(shoot)
p3907
tp3908
g0
(g14
g2
Ntp3909
Rp3910
(dp3911
g18
F0.5
sg19
I46
sg20
g21
((dp3912
I00
I45
sI01
I1
stp3913
Rp3914
sg25
I2
sg26
F47.0
sbs(g9
Vcontains(join)
p3915
tp3916
g0
(g14
g2
Ntp3917
Rp3918
(dp3919
g18
F0.5
sg19
I46
sg20
g21
((dp3920
I00
I46
stp3921
Rp3922
sg25
I2
sg26
F47.0
sbs(g9
Vcontains(pack)
p3923
tp3924
g0
(g14
g2
Ntp3925
Rp3926
(dp3927
g18
F0.5
sg19
I46
sg20
g21
((dp3928
I00
I44
sI01
I2
stp3929
Rp3930
sg25
I2
sg26
F47.0
sbs(g9
Vcontains(crimin)
p3931
tp3932
g0
(g14
g2
Ntp3933
Rp3934
(dp3935
g18
F0.5
sg19
I46
sg20
g21
((dp3936
I00
I45
sI01
I1
stp3937
Rp3938
sg25
I2
sg26
F47.0
sbs(g8
Vcontains(could)
p3939
tp3940
g0
(g14
g2
Ntp3941
Rp3942
(dp3943
g18
F0.5
sg19
I52
sg20
g21
((dp3944
I00
I52
stp3945
Rp3946
sg25
I2
sg26
F53.0
sbs(g9
Vcontains(imagin)
p3947
tp3948
g0
(g14
g2
Ntp3949
Rp3950
(dp3951
g18
F0.5
sg19
I46
sg20
g21
((dp3952
I00
I45
sI01
I1
stp3953
Rp3954
sg25
I2
sg26
F47.0
sbs(g8
Vcontains(overwhelm)
p3955
tp3956
g0
(g14
g2
Ntp3957
Rp3958
(dp3959
g18
F0.5
sg19
I52
sg20
g21
((dp3960
I00
I51
sI01
I1
stp3961
Rp3962
sg25
I2
sg26
F53.0
sbs(g9
Vcontains(demonstr)
p3963
tp3964
g0
(g14
g2
Ntp3965
Rp3966
(dp3967
g18
F0.5
sg19
I46
sg20
g21
((dp3968
I00
I45
sI01
I1
stp3969
Rp3970
sg25
I2
sg26
F47.0
sbs(g8
Vcontains(like)
p3971
tp3972
g0
(g14
g2
Ntp3973
Rp3974
(dp3975
g18
F0.5
sg19
I52
sg20
g21
((dp3976
I00
I51
sI01
I1
stp3977
Rp3978
sg25
I2
sg26
F53.0
sbs(g9
Vcontains(ap)
p3979
tp3980
g0
(g14
g2
Ntp3981
Rp3982
(dp3983
g18
F0.5
sg19
I46
sg20
g21
((dp3984
I00
I46
stp3985
Rp3986
sg25
I2
sg26
F47.0
sbs(g8
Vcontains(provid)
p3987
tp3988
g0
(g14
g2
Ntp3989
Rp3990
(dp3991
g18
F0.5
sg19
I52
sg20
g21
((dp3992
I00
I51
sI01
I1
stp3993
Rp3994
sg25
I2
sg26
F53.0
sbs(g8
Vcontains(america)
p3995
tp3996
g0
(g14
g2
Ntp3997
Rp3998
(dp3999
g18
F0.5
sg19
I52
sg20
g21
((dp4000
I00
I50
sI01
I2
stp4001
Rp4002
sg25
I2
sg26
F53.0
sbs(g9
Vcontains(twitter)
p4003
tp4004
g0
(g14
g2
Ntp4005
Rp4006
(dp4007
g18
F0.5
sg19
I46
sg20
g21
((dp4008
I00
I46
stp4009
Rp4010
sg25
I2
sg26
F47.0
sbs(g9
Vcontains(hs)
p4011
tp4012
g0
(g14
g2
Ntp4013
Rp4014
(dp4015
g18
F0.5
sg19
I46
sg20
g21
((dp4016
I00
I45
sI01
I1
stp4017
Rp4018
sg25
I2
sg26
F47.0
sbs(g9
Vcontains(fire)
p4019
tp4020
g0
(g14
g2
Ntp4021
Rp4022
(dp4023
g18
F0.5
sg19
I46
sg20
g21
((dp4024
I00
I46
stp4025
Rp4026
sg25
I2
sg26
F47.0
sbs(g9
Vcontains(screw)
p4027
tp4028
g0
(g14
g2
Ntp4029
Rp4030
(dp4031
g18
F0.5
sg19
I46
sg20
g21
((dp4032
I00
I45
sI01
I1
stp4033
Rp4034
sg25
I2
sg26
F47.0
sbs(g9
Vcontains(wall)
p4035
tp4036
g0
(g14
g2
Ntp4037
Rp4038
(dp4039
g18
F0.5
sg19
I46
sg20
g21
((dp4040
I00
I45
sI01
I1
stp4041
Rp4042
sg25
I2
sg26
F47.0
sbs(g9
Vcontains(give)
p4043
tp4044
g0
(g14
g2
Ntp4045
Rp4046
(dp4047
g18
F0.5
sg19
I46
sg20
g21
((dp4048
I00
I44
sI01
I2
stp4049
Rp4050
sg25
I2
sg26
F47.0
sbs(g9
Vcontains(know)
p4051
tp4052
g0
(g14
g2
Ntp4053
Rp4054
(dp4055
g18
F0.5
sg19
I46
sg20
g21
((dp4056
I00
I46
stp4057
Rp4058
sg25
I2
sg26
F47.0
sbs(g9
Vcontains(exact)
p4059
tp4060
g0
(g14
g2
Ntp4061
Rp4062
(dp4063
g18
F0.5
sg19
I46
sg20
g21
((dp4064
I00
I46
stp4065
Rp4066
sg25
I2
sg26
F47.0
sbs(g9
Vcontains(racial)
p4067
tp4068
g0
(g14
g2
Ntp4069
Rp4070
(dp4071
g18
F0.5
sg19
I46
sg20
g21
((dp4072
I00
I45
sI01
I1
stp4073
Rp4074
sg25
I2
sg26
F47.0
sbs(g8
Vcontains(titl)
p4075
tp4076
g0
(g14
g2
Ntp4077
Rp4078
(dp4079
g18
F0.5
sg19
I52
sg20
g21
((dp4080
I00
I51
sI01
I1
stp4081
Rp4082
sg25
I2
sg26
F53.0
sbs(g8
Vcontains(make)
p4083
tp4084
g0
(g14
g2
Ntp4085
Rp4086
(dp4087
g18
F0.5
sg19
I52
sg20
g21
((dp4088
I00
I51
sI01
I1
stp4089
Rp4090
sg25
I2
sg26
F53.0
sbs(g9
Vcontains(not_woman)
p4091
tp4092
g0
(g14
g2
Ntp4093
Rp4094
(dp4095
g18
F0.5
sg19
I46
sg20
g21
((dp4096
I00
I46
stp4097
Rp4098
sg25
I2
sg26
F47.0
sbs(g8
Vcontains(w)
p4099
tp4100
g0
(g14
g2
Ntp4101
Rp4102
(dp4103
g18
F0.5
sg19
I52
sg20
g21
((dp4104
I00
I51
sI01
I1
stp4105
Rp4106
sg25
I2
sg26
F53.0
sbs(g8
Vcontains(not_servic)
p4107
tp4108
g0
(g14
g2
Ntp4109
Rp4110
(dp4111
g18
F0.5
sg19
I52
sg20
g21
((dp4112
I00
I52
stp4113
Rp4114
sg25
I2
sg26
F53.0
sbs(g9
Vcontains(not_comey)
p4115
tp4116
g0
(g14
g2
Ntp4117
Rp4118
(dp4119
g18
F0.5
sg19
I46
sg20
g21
((dp4120
I00
I45
sI01
I1
stp4121
Rp4122
sg25
I2
sg26
F47.0
sbs(g9
Vcontains(promot)
p4123
tp4124
g0
(g14
g2
Ntp4125
Rp4126
(dp4127
g18
F0.5
sg19
I46
sg20
g21
((dp4128
I00
I45
sI01
I1
stp4129
Rp4130
sg25
I2
sg26
F47.0
sbs(g9
Vcontains(think)
p4131
tp4132
g0
(g14
g2
Ntp4133
Rp4134
(dp4135
g18
F0.5
sg19
I46
sg20
g21
((dp4136
I00
I45
sI01
I1
stp4137
Rp4138
sg25
I2
sg26
F47.0
sbs(g8
Vcontains(tell)
p4139
tp4140
g0
(g14
g2
Ntp4141
Rp4142
(dp4143
g18
F0.5
sg19
I52
sg20
g21
((dp4144
I00
I51
sI01
I1
stp4145
Rp4146
sg25
I2
sg26
F53.0
sbs(g8
Vcontains(not_parti)
p4147
tp4148
g0
(g14
g2
Ntp4149
Rp4150
(dp4151
g18
F0.5
sg19
I52
sg20
g21
((dp4152
I00
I51
sI01
I1
stp4153
Rp4154
sg25
I2
sg26
F53.0
sbs(g9
Vcontains(reject)
p4155
tp4156
g0
(g14
g2
Ntp4157
Rp4158
(dp4159
g18
F0.5
sg19
I46
sg20
g21
((dp4160
I00
I46
stp4161
Rp4162
sg25
I2
sg26
F47.0
sbs(g9
Vcontains(femal)
p4163
tp4164
g0
(g14
g2
Ntp4165
Rp4166
(dp4167
g18
F0.5
sg19
I46
sg20
g21
((dp4168
I00
I46
stp4169
Rp4170
sg25
I2
sg26
F47.0
sbs(g8
Vcontains()
p4171
tp4172
g0
(g14
g2
Ntp4173
Rp4174
(dp4175
g18
F0.5
sg19
I52
sg20
g21
((dp4176
I00
I49
sI01
I3
stp4177
Rp4178
sg25
I2
sg26
F53.0
sbs(g9
Vcontains(talk)
p4179
tp4180
g0
(g14
g2
Ntp4181
Rp4182
(dp4183
g18
F0.5
sg19
I46
sg20
g21
((dp4184
I00
I46
stp4185
Rp4186
sg25
I2
sg26
F47.0
sbs(g8
Vcontains(bigger)
p4187
tp4188
g0
(g14
g2
Ntp4189
Rp4190
(dp4191
g18
F0.5
sg19
I52
sg20
g21
((dp4192
I00
I51
sI01
I1
stp4193
Rp4194
sg25
I2
sg26
F53.0
sbs(g8
Vcontains(parti)
p4195
tp4196
g0
(g14
g2
Ntp4197
Rp4198
(dp4199
g18
F0.5
sg19
I52
sg20
g21
((dp4200
I00
I51
sI01
I1
stp4201
Rp4202
sg25
I2
sg26
F53.0
sbs(g9
Vcontains(judg)
p4203
tp4204
g0
(g14
g2
Ntp4205
Rp4206
(dp4207
g18
F0.5
sg19
I46
sg20
g21
((dp4208
I00
I45
sI01
I1
stp4209
Rp4210
sg25
I2
sg26
F47.0
sbs(g8
Vcontains(hand)
p4211
tp4212
g0
(g14
g2
Ntp4213
Rp4214
(dp4215
g18
F0.5
sg19
I52
sg20
g21
((dp4216
I00
I51
sI01
I1
stp4217
Rp4218
sg25
I2
sg26
F53.0
sbs(g8
Vcontains(ill)
p4219
tp4220
g0
(g14
g2
Ntp4221
Rp4222
(dp4223
g18
F0.5
sg19
I52
sg20
g21
((dp4224
I00
I51
sI01
I1
stp4225
Rp4226
sg25
I2
sg26
F53.0
sbs(g8
Vcontains(https)
p4227
tp4228
g0
(g14
g2
Ntp4229
Rp4230
(dp4231
g18
F0.5
sg19
I52
sg20
g21
((dp4232
I00
I47
sI01
I5
stp4233
Rp4234
sg25
I2
sg26
F53.0
sbs(g8
Vcontains(deliv)
p4235
tp4236
g0
(g14
g2
Ntp4237
Rp4238
(dp4239
g18
F0.5
sg19
I52
sg20
g21
((dp4240
I00
I51
sI01
I1
stp4241
Rp4242
sg25
I2
sg26
F53.0
sbs(g9
Vcontains(clinton)
p4243
tp4244
g0
(g14
g2
Ntp4245
Rp4246
(dp4247
g18
F0.5
sg19
I46
sg20
g21
((dp4248
I00
I33
sI01
I13
stp4249
Rp4250
sg25
I2
sg26
F47.0
sbs(g9
Vcontains(not_hillari)
p4251
tp4252
g0
(g14
g2
Ntp4253
Rp4254
(dp4255
g18
F0.5
sg19
I46
sg20
g21
((dp4256
I00
I45
sI01
I1
stp4257
Rp4258
sg25
I2
sg26
F47.0
sbs(g9
Vcontains(not_histor)
p4259
tp4260
g0
(g14
g2
Ntp4261
Rp4262
(dp4263
g18
F0.5
sg19
I46
sg20
g21
((dp4264
I00
I46
stp4265
Rp4266
sg25
I2
sg26
F47.0
sbs(g8
Vcontains(frack)
p4267
tp4268
g0
(g14
g2
Ntp4269
Rp4270
(dp4271
g18
F0.5
sg19
I52
sg20
g21
((dp4272
I00
I52
stp4273
Rp4274
sg25
I2
sg26
F53.0
sbs(g8
Vcontains(check)
p4275
tp4276
g0
(g14
g2
Ntp4277
Rp4278
(dp4279
g18
F0.5
sg19
I52
sg20
g21
((dp4280
I00
I51
sI01
I1
stp4281
Rp4282
sg25
I2
sg26
F53.0
sbs(g9
Vcontains(carri)
p4283
tp4284
g0
(g14
g2
Ntp4285
Rp4286
(dp4287
g18
F0.5
sg19
I46
sg20
g21
((dp4288
I00
I45
sI01
I1
stp4289
Rp4290
sg25
I2
sg26
F47.0
sbs(g8
Vcontains(judg)
p4291
tp4292
g0
(g14
g2
Ntp4293
Rp4294
(dp4295
g18
F0.5
sg19
I52
sg20
g21
((dp4296
I00
I52
stp4297
Rp4298
sg25
I2
sg26
F53.0
sbs(g9
Vcontains(titl)
p4299
tp4300
g0
(g14
g2
Ntp4301
Rp4302
(dp4303
g18
F0.5
sg19
I46
sg20
g21
((dp4304
I00
I46
stp4305
Rp4306
sg25
I2
sg26
F47.0
sbs(g8
Vcontains(blood)
p4307
tp4308
g0
(g14
g2
Ntp4309
Rp4310
(dp4311
g18
F0.5
sg19
I52
sg20
g21
((dp4312
I00
I52
stp4313
Rp4314
sg25
I2
sg26
F53.0
sbs(g8
Vcontains(dalla)
p4315
tp4316
g0
(g14
g2
Ntp4317
Rp4318
(dp4319
g18
F0.5
sg19
I52
sg20
g21
((dp4320
I00
I51
sI01
I1
stp4321
Rp4322
sg25
I2
sg26
F53.0
sbs(g8
Vcontains(not_woman)
p4323
tp4324
g0
(g14
g2
Ntp4325
Rp4326
(dp4327
g18
F0.5
sg19
I52
sg20
g21
((dp4328
I00
I51
sI01
I1
stp4329
Rp4330
sg25
I2
sg26
F53.0
sbs(g9
Vcontains(less)
p4331
tp4332
g0
(g14
g2
Ntp4333
Rp4334
(dp4335
g18
F0.5
sg19
I46
sg20
g21
((dp4336
I00
I46
stp4337
Rp4338
sg25
I2
sg26
F47.0
sbs(g9
Vcontains(defens)
p4339
tp4340
g0
(g14
g2
Ntp4341
Rp4342
(dp4343
g18
F0.5
sg19
I46
sg20
g21
((dp4344
I00
I46
stp4345
Rp4346
sg25
I2
sg26
F47.0
sbs(g9
Vcontains(hillari)
p4347
tp4348
g0
(g14
g2
Ntp4349
Rp4350
(dp4351
g18
F0.5
sg19
I46
sg20
g21
((dp4352
I00
I32
sI01
I14
stp4353
Rp4354
sg25
I2
sg26
F47.0
sbs(g8
Vcontains(less)
p4355
tp4356
g0
(g14
g2
Ntp4357
Rp4358
(dp4359
g18
F0.5
sg19
I52
sg20
g21
((dp4360
I00
I51
sI01
I1
stp4361
Rp4362
sg25
I2
sg26
F53.0
sbs(g9
Vcontains(public)
p4363
tp4364
g0
(g14
g2
Ntp4365
Rp4366
(dp4367
g18
F0.5
sg19
I46
sg20
g21
((dp4368
I00
I46
stp4369
Rp4370
sg25
I2
sg26
F47.0
sbs(g8
Vcontains(run)
p4371
tp4372
g0
(g14
g2
Ntp4373
Rp4374
(dp4375
g18
F0.5
sg19
I52
sg20
g21
((dp4376
I00
I52
stp4377
Rp4378
sg25
I2
sg26
F53.0
sbs(g8
Vcontains(curtain)
p4379
tp4380
g0
(g14
g2
Ntp4381
Rp4382
(dp4383
g18
F0.5
sg19
I52
sg20
g21
((dp4384
I00
I52
stp4385
Rp4386
sg25
I2
sg26
F53.0
sbs(g9
Vcontains(scam)
p4387
tp4388
g0
(g14
g2
Ntp4389
Rp4390
(dp4391
g18
F0.5
sg19
I46
sg20
g21
((dp4392
I00
I46
stp4393
Rp4394
sg25
I2
sg26
F47.0
sbs(g9
Vcontains(defeat)
p4395
tp4396
g0
(g14
g2
Ntp4397
Rp4398
(dp4399
g18
F0.5
sg19
I46
sg20
g21
((dp4400
I00
I45
sI01
I1
stp4401
Rp4402
sg25
I2
sg26
F47.0
sbs(g8
Vcontains(victim)
p4403
tp4404
g0
(g14
g2
Ntp4405
Rp4406
(dp4407
g18
F0.5
sg19
I52
sg20
g21
((dp4408
I00
I50
sI01
I2
stp4409
Rp4410
sg25
I2
sg26
F53.0
sbs(g9
Vcontains(w)
p4411
tp4412
g0
(g14
g2
Ntp4413
Rp4414
(dp4415
g18
F0.5
sg19
I46
sg20
g21
((dp4416
I00
I45
sI01
I1
stp4417
Rp4418
sg25
I2
sg26
F47.0
sbs(g9
Vcontains(everyon)
p4419
tp4420
g0
(g14
g2
Ntp4421
Rp4422
(dp4423
g18
F0.5
sg19
I46
sg20
g21
((dp4424
I00
I46
stp4425
Rp4426
sg25
I2
sg26
F47.0
sbs(g9
Vcontains(aggress)
p4427
tp4428
g0
(g14
g2
Ntp4429
Rp4430
(dp4431
g18
F0.5
sg19
I46
sg20
g21
((dp4432
I00
I46
stp4433
Rp4434
sg25
I2
sg26
F47.0
sbs(g9
Vcontains(air)
p4435
tp4436
g0
(g14
g2
Ntp4437
Rp4438
(dp4439
g18
F0.5
sg19
I46
sg20
g21
((dp4440
I00
I46
stp4441
Rp4442
sg25
I2
sg26
F47.0
sbs(g8
Vcontains(erupt)
p4443
tp4444
g0
(g14
g2
Ntp4445
Rp4446
(dp4447
g18
F0.5
sg19
I52
sg20
g21
((dp4448
I00
I52
stp4449
Rp4450
sg25
I2
sg26
F53.0
sbs(g9
Vcontains(call)
p4451
tp4452
g0
(g14
g2
Ntp4453
Rp4454
(dp4455
g18
F0.5
sg19
I46
sg20
g21
((dp4456
I00
I45
sI01
I1
stp4457
Rp4458
sg25
I2
sg26
F47.0
sbs(g9
Vcontains(trust)
p4459
tp4460
g0
(g14
g2
Ntp4461
Rp4462
(dp4463
g18
F0.5
sg19
I46
sg20
g21
((dp4464
I00
I44
sI01
I2
stp4465
Rp4466
sg25
I2
sg26
F47.0
sbs(g8
Vcontains(not_justic)
p4467
tp4468
g0
(g14
g2
Ntp4469
Rp4470
(dp4471
g18
F0.5
sg19
I52
sg20
g21
((dp4472
I00
I52
stp4473
Rp4474
sg25
I2
sg26
F53.0
sbs(g9
Vcontains(time)
p4475
tp4476
g0
(g14
g2
Ntp4477
Rp4478
(dp4479
g18
F0.5
sg19
I46
sg20
g21
((dp4480
I00
I45
sI01
I1
stp4481
Rp4482
sg25
I2
sg26
F47.0
sbs(g8
Vcontains(thought)
p4483
tp4484
g0
(g14
g2
Ntp4485
Rp4486
(dp4487
g18
F0.5
sg19
I52
sg20
g21
((dp4488
I00
I52
stp4489
Rp4490
sg25
I2
sg26
F53.0
sbs(g8
Vcontains(wake)
p4491
tp4492
g0
(g14
g2
Ntp4493
Rp4494
(dp4495
g18
F0.5
sg19
I52
sg20
g21
((dp4496
I00
I51
sI01
I1
stp4497
Rp4498
sg25
I2
sg26
F53.0
sbs(g8
Vcontains(were)
p4499
tp4500
g0
(g14
g2
Ntp4501
Rp4502
(dp4503
g18
F0.5
sg19
I52
sg20
g21
((dp4504
I00
I52
stp4505
Rp4506
sg25
I2
sg26
F53.0
sbs(g9
Vcontains(side)
p4507
tp4508
g0
(g14
g2
Ntp4509
Rp4510
(dp4511
g18
F0.5
sg19
I46
sg20
g21
((dp4512
I00
I46
stp4513
Rp4514
sg25
I2
sg26
F47.0
sbs(g9
Vcontains(regim)
p4515
tp4516
g0
(g14
g2
Ntp4517
Rp4518
(dp4519
g18
F0.5
sg19
I46
sg20
g21
((dp4520
I00
I45
sI01
I1
stp4521
Rp4522
sg25
I2
sg26
F47.0
sbs(g9
Vcontains(move)
p4523
tp4524
g0
(g14
g2
Ntp4525
Rp4526
(dp4527
g18
F0.5
sg19
I46
sg20
g21
((dp4528
I00
I45
sI01
I1
stp4529
Rp4530
sg25
I2
sg26
F47.0
sbs(g9
Vcontains(jeb)
p4531
tp4532
g0
(g14
g2
Ntp4533
Rp4534
(dp4535
g18
F0.5
sg19
I46
sg20
g21
((dp4536
I00
I45
sI01
I1
stp4537
Rp4538
sg25
I2
sg26
F47.0
sbs(g8
Vcontains(hour)
p4539
tp4540
g0
(g14
g2
Ntp4541
Rp4542
(dp4543
g18
F0.5
sg19
I52
sg20
g21
((dp4544
I00
I51
sI01
I1
stp4545
Rp4546
sg25
I2
sg26
F53.0
sbs(g9
Vcontains(chap)
p4547
tp4548
g0
(g14
g2
Ntp4549
Rp4550
(dp4551
g18
F0.5
sg19
I46
sg20
g21
((dp4552
I00
I46
stp4553
Rp4554
sg25
I2
sg26
F47.0
sbs(g8
Vcontains(comey)
p4555
tp4556
g0
(g14
g2
Ntp4557
Rp4558
(dp4559
g18
F0.5
sg19
I52
sg20
g21
((dp4560
I00
I51
sI01
I1
stp4561
Rp4562
sg25
I2
sg26
F53.0
sbs(g9
Vcontains(keep)
p4563
tp4564
g0
(g14
g2
Ntp4565
Rp4566
(dp4567
g18
F0.5
sg19
I46
sg20
g21
((dp4568
I00
I46
stp4569
Rp4570
sg25
I2
sg26
F47.0
sbs(g8
Vcontains(not_abt)
p4571
tp4572
g0
(g14
g2
Ntp4573
Rp4574
(dp4575
g18
F0.5
sg19
I52
sg20
g21
((dp4576
I00
I51
sI01
I1
stp4577
Rp4578
sg25
I2
sg26
F53.0
sbs(g9
Vcontains(not_publ)
p4579
tp4580
g0
(g14
g2
Ntp4581
Rp4582
(dp4583
g18
F0.5
sg19
I46
sg20
g21
((dp4584
I00
I45
sI01
I1
stp4585
Rp4586
sg25
I2
sg26
F47.0
sbs(g9
Vcontains(end)
p4587
tp4588
g0
(g14
g2
Ntp4589
Rp4590
(dp4591
g18
F0.5
sg19
I46
sg20
g21
((dp4592
I00
I45
sI01
I1
stp4593
Rp4594
sg25
I2
sg26
F47.0
sbs(g8
Vcontains(hero)
p4595
tp4596
g0
(g14
g2
Ntp4597
Rp4598
(dp4599
g18
F0.5
sg19
I52
sg20
g21
((dp4600
I00
I52
stp4601
Rp4602
sg25
I2
sg26
F53.0
sbs(g9
Vcontains(prais)
p4603
tp4604
g0
(g14
g2
Ntp4605
Rp4606
(dp4607
g18
F0.5
sg19
I46
sg20
g21
((dp4608
I00
I46
stp4609
Rp4610
sg25
I2
sg26
F47.0
sbs(g8
Vcontains(anoth)
p4611
tp4612
g0
(g14
g2
Ntp4613
Rp4614
(dp4615
g18
F0.5
sg19
I52
sg20
g21
((dp4616
I00
I51
sI01
I1
stp4617
Rp4618
sg25
I2
sg26
F53.0
sbs(g8
Vcontains(cycl)
p4619
tp4620
g0
(g14
g2
Ntp4621
Rp4622
(dp4623
g18
F0.5
sg19
I52
sg20
g21
((dp4624
I00
I52
stp4625
Rp4626
sg25
I2
sg26
F53.0
sbs(g9
Vcontains(readi)
p4627
tp4628
g0
(g14
g2
Ntp4629
Rp4630
(dp4631
g18
F0.5
sg19
I46
sg20
g21
((dp4632
I00
I46
stp4633
Rp4634
sg25
I2
sg26
F47.0
sbs(g8
Vcontains(violenc)
p4635
tp4636
g0
(g14
g2
Ntp4637
Rp4638
(dp4639
g18
F0.5
sg19
I52
sg20
g21
((dp4640
I00
I52
stp4641
Rp4642
sg25
I2
sg26
F53.0
sbs(g8
Vcontains(democrat)
p4643
tp4644
g0
(g14
g2
Ntp4645
Rp4646
(dp4647
g18
F0.5
sg19
I52
sg20
g21
((dp4648
I00
I49
sI01
I3
stp4649
Rp4650
sg25
I2
sg26
F53.0
sbs(g9
Vcontains(philadelphia)
p4651
tp4652
g0
(g14
g2
Ntp4653
Rp4654
(dp4655
g18
F0.5
sg19
I46
sg20
g21
((dp4656
I00
I46
stp4657
Rp4658
sg25
I2
sg26
F47.0
sbs(g8
Vcontains(case)
p4659
tp4660
g0
(g14
g2
Ntp4661
Rp4662
(dp4663
g18
F0.5
sg19
I52
sg20
g21
((dp4664
I00
I52
stp4665
Rp4666
sg25
I2
sg26
F53.0
sbs(g8
Vcontains(news)
p4667
tp4668
g0
(g14
g2
Ntp4669
Rp4670
(dp4671
g18
F0.5
sg19
I52
sg20
g21
((dp4672
I00
I52
stp4673
Rp4674
sg25
I2
sg26
F53.0
sbs(g8
Vcontains(depart)
p4675
tp4676
g0
(g14
g2
Ntp4677
Rp4678
(dp4679
g18
F0.5
sg19
I52
sg20
g21
((dp4680
I00
I51
sI01
I1
stp4681
Rp4682
sg25
I2
sg26
F53.0
sbs(g8
Vcontains(foundat)
p4683
tp4684
g0
(g14
g2
Ntp4685
Rp4686
(dp4687
g18
F0.5
sg19
I52
sg20
g21
((dp4688
I00
I50
sI01
I2
stp4689
Rp4690
sg25
I2
sg26
F53.0
sbs(g9
Vcontains(import)
p4691
tp4692
g0
(g14
g2
Ntp4693
Rp4694
(dp4695
g18
F0.5
sg19
I46
sg20
g21
((dp4696
I00
I46
stp4697
Rp4698
sg25
I2
sg26
F47.0
sbs(g8
Vcontains(member)
p4699
tp4700
g0
(g14
g2
Ntp4701
Rp4702
(dp4703
g18
F0.5
sg19
I52
sg20
g21
((dp4704
I00
I51
sI01
I1
stp4705
Rp4706
sg25
I2
sg26
F53.0
sbs(g9
Vcontains(news)
p4707
tp4708
g0
(g14
g2
Ntp4709
Rp4710
(dp4711
g18
F0.5
sg19
I46
sg20
g21
((dp4712
I00
I45
sI01
I1
stp4713
Rp4714
sg25
I2
sg26
F47.0
sbs(g9
Vcontains(back)
p4715
tp4716
g0
(g14
g2
Ntp4717
Rp4718
(dp4719
g18
F0.5
sg19
I46
sg20
g21
((dp4720
I00
I44
sI01
I2
stp4721
Rp4722
sg25
I2
sg26
F47.0
sbs(g9
Vcontains(read)
p4723
tp4724
g0
(g14
g2
Ntp4725
Rp4726
(dp4727
g18
F0.5
sg19
I46
sg20
g21
((dp4728
I00
I46
stp4729
Rp4730
sg25
I2
sg26
F47.0
sbs(g8
Vcontains(let)
p4731
tp4732
g0
(g14
g2
Ntp4733
Rp4734
(dp4735
g18
F0.5
sg19
I52
sg20
g21
((dp4736
I00
I51
sI01
I1
stp4737
Rp4738
sg25
I2
sg26
F53.0
sbs(g9
Vcontains(koch)
p4739
tp4740
g0
(g14
g2
Ntp4741
Rp4742
(dp4743
g18
F0.5
sg19
I46
sg20
g21
((dp4744
I00
I45
sI01
I1
stp4745
Rp4746
sg25
I2
sg26
F47.0
sbs(g9
Vcontains(toscrew)
p4747
tp4748
g0
(g14
g2
Ntp4749
Rp4750
(dp4751
g18
F0.5
sg19
I46
sg20
g21
((dp4752
I00
I45
sI01
I1
stp4753
Rp4754
sg25
I2
sg26
F47.0
sbs(g9
Vcontains(prevent)
p4755
tp4756
g0
(g14
g2
Ntp4757
Rp4758
(dp4759
g18
F0.5
sg19
I46
sg20
g21
((dp4760
I00
I45
sI01
I1
stp4761
Rp4762
sg25
I2
sg26
F47.0
sbs(g9
Vcontains(not_domin)
p4763
tp4764
g0
(g14
g2
Ntp4765
Rp4766
(dp4767
g18
F0.5
sg19
I46
sg20
g21
((dp4768
I00
I46
stp4769
Rp4770
sg25
I2
sg26
F47.0
sbs(g8
Vcontains(oppos)
p4771
tp4772
g0
(g14
g2
Ntp4773
Rp4774
(dp4775
g18
F0.5
sg19
I52
sg20
g21
((dp4776
I00
I51
sI01
I1
stp4777
Rp4778
sg25
I2
sg26
F53.0
sbs(g9
Vcontains(brown)
p4779
tp4780
g0
(g14
g2
Ntp4781
Rp4782
(dp4783
g18
F0.5
sg19
I46
sg20
g21
((dp4784
I00
I46
stp4785
Rp4786
sg25
I2
sg26
F47.0
sbs(g9
Vcontains(fact)
p4787
tp4788
g0
(g14
g2
Ntp4789
Rp4790
(dp4791
g18
F0.5
sg19
I46
sg20
g21
((dp4792
I00
I45
sI01
I1
stp4793
Rp4794
sg25
I2
sg26
F47.0
sbs(g8
Vcontains(get)
p4795
tp4796
g0
(g14
g2
Ntp4797
Rp4798
(dp4799
g18
F0.5
sg19
I52
sg20
g21
((dp4800
I00
I48
sI01
I4
stp4801
Rp4802
sg25
I2
sg26
F53.0
sbs(g8
Vcontains(bcuz)
p4803
tp4804
g0
(g14
g2
Ntp4805
Rp4806
(dp4807
g18
F0.5
sg19
I52
sg20
g21
((dp4808
I00
I52
stp4809
Rp4810
sg25
I2
sg26
F53.0
sbs(g9
Vcontains(not_class)
p4811
tp4812
g0
(g14
g2
Ntp4813
Rp4814
(dp4815
g18
F0.5
sg19
I46
sg20
g21
((dp4816
I00
I46
stp4817
Rp4818
sg25
I2
sg26
F47.0
sbs(g8
Vcontains(sin)
p4819
tp4820
g0
(g14
g2
Ntp4821
Rp4822
(dp4823
g18
F0.5
sg19
I52
sg20
g21
((dp4824
I00
I51
sI01
I1
stp4825
Rp4826
sg25
I2
sg26
F53.0
sbs(g8
Vcontains(rat)
p4827
tp4828
g0
(g14
g2
Ntp4829
Rp4830
(dp4831
g18
F0.5
sg19
I52
sg20
g21
((dp4832
I00
I52
stp4833
Rp4834
sg25
I2
sg26
F53.0
sbs(g9
Vcontains(reckless)
p4835
tp4836
g0
(g14
g2
Ntp4837
Rp4838
(dp4839
g18
F0.5
sg19
I46
sg20
g21
((dp4840
I00
I46
stp4841
Rp4842
sg25
I2
sg26
F47.0
sbs(g9
Vcontains(acknowledg)
p4843
tp4844
g0
(g14
g2
Ntp4845
Rp4846
(dp4847
g18
F0.5
sg19
I46
sg20
g21
((dp4848
I00
I46
stp4849
Rp4850
sg25
I2
sg26
F47.0
sbs(g8
Vcontains(one)
p4851
tp4852
g0
(g14
g2
Ntp4853
Rp4854
(dp4855
g18
F0.5
sg19
I52
sg20
g21
((dp4856
I00
I51
sI01
I1
stp4857
Rp4858
sg25
I2
sg26
F53.0
sbs(g8
Vcontains(new)
p4859
tp4860
g0
(g14
g2
Ntp4861
Rp4862
(dp4863
g18
F0.5
sg19
I52
sg20
g21
((dp4864
I00
I52
stp4865
Rp4866
sg25
I2
sg26
F53.0
sbs(g8
Vcontains(wont)
p4867
tp4868
g0
(g14
g2
Ntp4869
Rp4870
(dp4871
g18
F0.5
sg19
I52
sg20
g21
((dp4872
I00
I50
sI01
I2
stp4873
Rp4874
sg25
I2
sg26
F53.0
sbs(g9
Vcontains(not_gain)
p4875
tp4876
g0
(g14
g2
Ntp4877
Rp4878
(dp4879
g18
F0.5
sg19
I46
sg20
g21
((dp4880
I00
I45
sI01
I1
stp4881
Rp4882
sg25
I2
sg26
F47.0
sbs(g8
Vcontains(bros)
p4883
tp4884
g0
(g14
g2
Ntp4885
Rp4886
(dp4887
g18
F0.5
sg19
I52
sg20
g21
((dp4888
I00
I52
stp4889
Rp4890
sg25
I2
sg26
F53.0
sbs(g8
Vcontains(three)
p4891
tp4892
g0
(g14
g2
Ntp4893
Rp4894
(dp4895
g18
F0.5
sg19
I52
sg20
g21
((dp4896
I00
I52
stp4897
Rp4898
sg25
I2
sg26
F53.0
sbs(g8
Vcontains(talk)
p4899
tp4900
g0
(g14
g2
Ntp4901
Rp4902
(dp4903
g18
F0.5
sg19
I52
sg20
g21
((dp4904
I00
I51
sI01
I1
stp4905
Rp4906
sg25
I2
sg26
F53.0
sbs(g8
Vcontains(not_kid)
p4907
tp4908
g0
(g14
g2
Ntp4909
Rp4910
(dp4911
g18
F0.5
sg19
I52
sg20
g21
((dp4912
I00
I52
stp4913
Rp4914
sg25
I2
sg26
F53.0
sbs(g9
Vcontains(not_us)
p4915
tp4916
g0
(g14
g2
Ntp4917
Rp4918
(dp4919
g18
F0.5
sg19
I46
sg20
g21
((dp4920
I00
I45
sI01
I1
stp4921
Rp4922
sg25
I2
sg26
F47.0
sbs(g9
Vcontains(boost)
p4923
tp4924
g0
(g14
g2
Ntp4925
Rp4926
(dp4927
g18
F0.5
sg19
I46
sg20
g21
((dp4928
I00
I45
sI01
I1
stp4929
Rp4930
sg25
I2
sg26
F47.0
sbs(g8
Vcontains(speech)
p4931
tp4932
g0
(g14
g2
Ntp4933
Rp4934
(dp4935
g18
F0.5
sg19
I52
sg20
g21
((dp4936
I00
I51
sI01
I1
stp4937
Rp4938
sg25
I2
sg26
F53.0
sbs(g8
Vcontains(issu)
p4939
tp4940
g0
(g14
g2
Ntp4941
Rp4942
(dp4943
g18
F0.5
sg19
I52
sg20
g21
((dp4944
I00
I51
sI01
I1
stp4945
Rp4946
sg25
I2
sg26
F53.0
sbs(g8
Vcontains(h)
p4947
tp4948
g0
(g14
g2
Ntp4949
Rp4950
(dp4951
g18
F0.5
sg19
I52
sg20
g21
((dp4952
I00
I52
stp4953
Rp4954
sg25
I2
sg26
F53.0
sbs(g8
Vcontains(drop)
p4955
tp4956
g0
(g14
g2
Ntp4957
Rp4958
(dp4959
g18
F0.5
sg19
I52
sg20
g21
((dp4960
I00
I52
stp4961
Rp4962
sg25
I2
sg26
F53.0
sbs(g9
Vcontains(cos)
p4963
tp4964
g0
(g14
g2
Ntp4965
Rp4966
(dp4967
g18
F0.5
sg19
I46
sg20
g21
((dp4968
I00
I45
sI01
I1
stp4969
Rp4970
sg25
I2
sg26
F47.0
sbs(g9
Vcontains(voter)
p4971
tp4972
g0
(g14
g2
Ntp4973
Rp4974
(dp4975
g18
F0.5
sg19
I46
sg20
g21
((dp4976
I00
I45
sI01
I1
stp4977
Rp4978
sg25
I2
sg26
F47.0
sbs(g9
Vcontains(submit)
p4979
tp4980
g0
(g14
g2
Ntp4981
Rp4982
(dp4983
g18
F0.5
sg19
I46
sg20
g21
((dp4984
I00
I46
stp4985
Rp4986
sg25
I2
sg26
F47.0
sbs(g9
Vcontains(retweet)
p4987
tp4988
g0
(g14
g2
Ntp4989
Rp4990
(dp4991
g18
F0.5
sg19
I46
sg20
g21
((dp4992
I00
I45
sI01
I1
stp4993
Rp4994
sg25
I2
sg26
F47.0
sbs(g9
Vcontains(ill)
p4995
tp4996
g0
(g14
g2
Ntp4997
Rp4998
(dp4999
g18
F0.5
sg19
I46
sg20
g21
((dp5000
I00
I46
stp5001
Rp5002
sg25
I2
sg26
F47.0
sbs(g9
Vcontains(cycl)
p5003
tp5004
g0
(g14
g2
Ntp5005
Rp5006
(dp5007
g18
F0.5
sg19
I46
sg20
g21
((dp5008
I00
I45
sI01
I1
stp5009
Rp5010
sg25
I2
sg26
F47.0
sbs(g9
Vcontains(hudson)
p5011
tp5012
g0
(g14
g2
Ntp5013
Rp5014
(dp5015
g18
F0.5
sg19
I46
sg20
g21
((dp5016
I00
I45
sI01
I1
stp5017
Rp5018
sg25
I2
sg26
F47.0
sbs(g9
Vcontains(togeth)
p5019
tp5020
g0
(g14
g2
Ntp5021
Rp5022
(dp5023
g18
F0.5
sg19
I46
sg20
g21
((dp5024
I00
I46
stp5025
Rp5026
sg25
I2
sg26
F47.0
sbs(g9
Vcontains(blood)
p5027
tp5028
g0
(g14
g2
Ntp5029
Rp5030
(dp5031
g18
F0.5
sg19
I46
sg20
g21
((dp5032
I00
I45
sI01
I1
stp5033
Rp5034
sg25
I2
sg26
F47.0
sbs(g8
Vcontains(jeb)
p5035
tp5036
g0
(g14
g2
Ntp5037
Rp5038
(dp5039
g18
F0.5
sg19
I52
sg20
g21
((dp5040
I00
I52
stp5041
Rp5042
sg25
I2
sg26
F53.0
sbs(g8
Vcontains(obama)
p5043
tp5044
g0
(g14
g2
Ntp5045
Rp5046
(dp5047
g18
F0.5
sg19
I52
sg20
g21
((dp5048
I00
I49
sI01
I3
stp5049
Rp5050
sg25
I2
sg26
F53.0
sbs(g8
Vcontains(cuz)
p5051
tp5052
g0
(g14
g2
Ntp5053
Rp5054
(dp5055
g18
F0.5
sg19
I52
sg20
g21
((dp5056
I00
I51
sI01
I1
stp5057
Rp5058
sg25
I2
sg26
F53.0
sbs(g9
Vcontains(colon)
p5059
tp5060
g0
(g14
g2
Ntp5061
Rp5062
(dp5063
g18
F0.5
sg19
I46
sg20
g21
((dp5064
I00
I46
stp5065
Rp5066
sg25
I2
sg26
F47.0
sbs(g8
Vcontains(come)
p5067
tp5068
g0
(g14
g2
Ntp5069
Rp5070
(dp5071
g18
F0.5
sg19
I52
sg20
g21
((dp5072
I00
I51
sI01
I1
stp5073
Rp5074
sg25
I2
sg26
F53.0
sbs(g8
Vcontains(entir)
p5075
tp5076
g0
(g14
g2
Ntp5077
Rp5078
(dp5079
g18
F0.5
sg19
I52
sg20
g21
((dp5080
I00
I52
stp5081
Rp5082
sg25
I2
sg26
F53.0
sbs(g8
Vcontains(not_hear)
p5083
tp5084
g0
(g14
g2
Ntp5085
Rp5086
(dp5087
g18
F0.5
sg19
I52
sg20
g21
((dp5088
I00
I52
stp5089
Rp5090
sg25
I2
sg26
F53.0
sbs(g8
Vcontains(defens)
p5091
tp5092
g0
(g14
g2
Ntp5093
Rp5094
(dp5095
g18
F0.5
sg19
I52
sg20
g21
((dp5096
I00
I51
sI01
I1
stp5097
Rp5098
sg25
I2
sg26
F53.0
sbs(g8
Vcontains(vote)
p5099
tp5100
g0
(g14
g2
Ntp5101
Rp5102
(dp5103
g18
F0.5
sg19
I52
sg20
g21
((dp5104
I00
I50
sI01
I2
stp5105
Rp5106
sg25
I2
sg26
F53.0
sbs(g9
Vcontains(sent)
p5107
tp5108
g0
(g14
g2
Ntp5109
Rp5110
(dp5111
g18
F0.5
sg19
I46
sg20
g21
((dp5112
I00
I45
sI01
I1
stp5113
Rp5114
sg25
I2
sg26
F47.0
sbs(g8
Vcontains(suffer)
p5115
tp5116
g0
(g14
g2
Ntp5117
Rp5118
(dp5119
g18
F0.5
sg19
I52
sg20
g21
((dp5120
I00
I51
sI01
I1
stp5121
Rp5122
sg25
I2
sg26
F53.0
sbs(g9
Vcontains(not_se)
p5123
tp5124
g0
(g14
g2
Ntp5125
Rp5126
(dp5127
g18
F0.5
sg19
I46
sg20
g21
((dp5128
I00
I45
sI01
I1
stp5129
Rp5130
sg25
I2
sg26
F47.0
sbs(g8
Vcontains(sander)
p5131
tp5132
g0
(g14
g2
Ntp5133
Rp5134
(dp5135
g18
F0.5
sg19
I52
sg20
g21
((dp5136
I00
I50
sI01
I2
stp5137
Rp5138
sg25
I2
sg26
F53.0
sbs(g9
Vcontains(elect)
p5139
tp5140
g0
(g14
g2
Ntp5141
Rp5142
(dp5143
g18
F0.5
sg19
I46
sg20
g21
((dp5144
I00
I46
stp5145
Rp5146
sg25
I2
sg26
F47.0
sbs(g9
Vcontains(work)
p5147
tp5148
g0
(g14
g2
Ntp5149
Rp5150
(dp5151
g18
F0.5
sg19
I46
sg20
g21
((dp5152
I00
I46
stp5153
Rp5154
sg25
I2
sg26
F47.0
sbs(g8
Vcontains(side)
p5155
tp5156
g0
(g14
g2
Ntp5157
Rp5158
(dp5159
g18
F0.5
sg19
I52
sg20
g21
((dp5160
I00
I51
sI01
I1
stp5161
Rp5162
sg25
I2
sg26
F53.0
sbs(g9
Vcontains(not_li)
p5163
tp5164
g0
(g14
g2
Ntp5165
Rp5166
(dp5167
g18
F0.5
sg19
I46
sg20
g21
((dp5168
I00
I44
sI01
I2
stp5169
Rp5170
sg25
I2
sg26
F47.0
sbs(g8
Vcontains(toward)
p5171
tp5172
g0
(g14
g2
Ntp5173
Rp5174
(dp5175
g18
F0.5
sg19
I52
sg20
g21
((dp5176
I00
I52
stp5177
Rp5178
sg25
I2
sg26
F53.0
sbs(g8
Vcontains(chang)
p5179
tp5180
g0
(g14
g2
Ntp5181
Rp5182
(dp5183
g18
F0.5
sg19
I52
sg20
g21
((dp5184
I00
I52
stp5185
Rp5186
sg25
I2
sg26
F53.0
sbs(g8
Vcontains(matter)
p5187
tp5188
g0
(g14
g2
Ntp5189
Rp5190
(dp5191
g18
F0.5
sg19
I52
sg20
g21
((dp5192
I00
I51
sI01
I1
stp5193
Rp5194
sg25
I2
sg26
F53.0
sbs(g9
Vcontains(free)
p5195
tp5196
g0
(g14
g2
Ntp5197
Rp5198
(dp5199
g18
F0.5
sg19
I46
sg20
g21
((dp5200
I00
I46
stp5201
Rp5202
sg25
I2
sg26
F47.0
sbs(g8
Vcontains(oh)
p5203
tp5204
g0
(g14
g2
Ntp5205
Rp5206
(dp5207
g18
F0.5
sg19
I52
sg20
g21
((dp5208
I00
I51
sI01
I1
stp5209
Rp5210
sg25
I2
sg26
F53.0
sbs(g8
Vcontains(campaign)
p5211
tp5212
g0
(g14
g2
Ntp5213
Rp5214
(dp5215
g18
F0.5
sg19
I52
sg20
g21
((dp5216
I00
I51
sI01
I1
stp5217
Rp5218
sg25
I2
sg26
F53.0
sbs(g8
Vcontains(shalt)
p5219
tp5220
g0
(g14
g2
Ntp5221
Rp5222
(dp5223
g18
F0.5
sg19
I52
sg20
g21
((dp5224
I00
I51
sI01
I1
stp5225
Rp5226
sg25
I2
sg26
F53.0
sbs(g9
Vcontains(not_refuge)
p5227
tp5228
g0
(g14
g2
Ntp5229
Rp5230
(dp5231
g18
F0.5
sg19
I46
sg20
g21
((dp5232
I00
I45
sI01
I1
stp5233
Rp5234
sg25
I2
sg26
F47.0
sbs(g8
Vcontains(put)
p5235
tp5236
g0
(g14
g2
Ntp5237
Rp5238
(dp5239
g18
F0.5
sg19
I52
sg20
g21
((dp5240
I00
I50
sI01
I2
stp5241
Rp5242
sg25
I2
sg26
F53.0
sbs(g9
Vcontains(ars)
p5243
tp5244
g0
(g14
g2
Ntp5245
Rp5246
(dp5247
g18
F0.5
sg19
I46
sg20
g21
((dp5248
I00
I45
sI01
I1
stp5249
Rp5250
sg25
I2
sg26
F47.0
sbs(g8
Vcontains(feed)
p5251
tp5252
g0
(g14
g2
Ntp5253
Rp5254
(dp5255
g18
F0.5
sg19
I52
sg20
g21
((dp5256
I00
I51
sI01
I1
stp5257
Rp5258
sg25
I2
sg26
F53.0
sbs(g9
Vcontains(black)
p5259
tp5260
g0
(g14
g2
Ntp5261
Rp5262
(dp5263
g18
F0.5
sg19
I46
sg20
g21
((dp5264
I00
I46
stp5265
Rp5266
sg25
I2
sg26
F47.0
sbs(g9
Vcontains(laid)
p5267
tp5268
g0
(g14
g2
Ntp5269
Rp5270
(dp5271
g18
F0.5
sg19
I46
sg20
g21
((dp5272
I00
I45
sI01
I1
stp5273
Rp5274
sg25
I2
sg26
F47.0
sbs(g9
Vcontains(thank)
p5275
tp5276
g0
(g14
g2
Ntp5277
Rp5278
(dp5279
g18
F0.5
sg19
I46
sg20
g21
((dp5280
I00
I45
sI01
I1
stp5281
Rp5282
sg25
I2
sg26
F47.0
sbs(g8
Vcontains(presid)
p5283
tp5284
g0
(g14
g2
Ntp5285
Rp5286
(dp5287
g18
F0.5
sg19
I52
sg20
g21
((dp5288
I00
I51
sI01
I1
stp5289
Rp5290
sg25
I2
sg26
F53.0
sbs(g8
Vcontains(boost)
p5291
tp5292
g0
(g14
g2
Ntp5293
Rp5294
(dp5295
g18
F0.5
sg19
I52
sg20
g21
((dp5296
I00
I52
stp5297
Rp5298
sg25
I2
sg26
F53.0
sbs(g9
Vcontains(well)
p5299
tp5300
g0
(g14
g2
Ntp5301
Rp5302
(dp5303
g18
F0.5
sg19
I46
sg20
g21
((dp5304
I00
I45
sI01
I1
stp5305
Rp5306
sg25
I2
sg26
F47.0
sbs(g9
Vcontains(feed)
p5307
tp5308
g0
(g14
g2
Ntp5309
Rp5310
(dp5311
g18
F0.5
sg19
I46
sg20
g21
((dp5312
I00
I46
stp5313
Rp5314
sg25
I2
sg26
F47.0
sbs(g9
Vcontains(quot)
p5315
tp5316
g0
(g14
g2
Ntp5317
Rp5318
(dp5319
g18
F0.5
sg19
I46
sg20
g21
((dp5320
I00
I45
sI01
I1
stp5321
Rp5322
sg25
I2
sg26
F47.0
sbs(g8
Vcontains(doj)
p5323
tp5324
g0
(g14
g2
Ntp5325
Rp5326
(dp5327
g18
F0.5
sg19
I52
sg20
g21
((dp5328
I00
I51
sI01
I1
stp5329
Rp5330
sg25
I2
sg26
F53.0
sbs(g9
Vcontains(palestinian)
p5331
tp5332
g0
(g14
g2
Ntp5333
Rp5334
(dp5335
g18
F0.5
sg19
I46
sg20
g21
((dp5336
I00
I45
sI01
I1
stp5337
Rp5338
sg25
I2
sg26
F47.0
sbs(g8
Vcontains(not_catastroph)
p5339
tp5340
g0
(g14
g2
Ntp5341
Rp5342
(dp5343
g18
F0.5
sg19
I52
sg20
g21
((dp5344
I00
I51
sI01
I1
stp5345
Rp5346
sg25
I2
sg26
F53.0
sbs(g9
Vcontains(list)
p5347
tp5348
g0
(g14
g2
Ntp5349
Rp5350
(dp5351
g18
F0.5
sg19
I46
sg20
g21
((dp5352
I00
I46
stp5353
Rp5354
sg25
I2
sg26
F47.0
sbs(g8
Vcontains(distract)
p5355
tp5356
g0
(g14
g2
Ntp5357
Rp5358
(dp5359
g18
F0.5
sg19
I52
sg20
g21
((dp5360
I00
I51
sI01
I1
stp5361
Rp5362
sg25
I2
sg26
F53.0
sbs(g8
Vcontains(cop)
p5363
tp5364
g0
(g14
g2
Ntp5365
Rp5366
(dp5367
g18
F0.5
sg19
I52
sg20
g21
((dp5368
I00
I51
sI01
I1
stp5369
Rp5370
sg25
I2
sg26
F53.0
sbs(g9
Vcontains(year)
p5371
tp5372
g0
(g14
g2
Ntp5373
Rp5374
(dp5375
g18
F0.5
sg19
I46
sg20
g21
((dp5376
I00
I45
sI01
I1
stp5377
Rp5378
sg25
I2
sg26
F47.0
sbs(g8
Vcontains(destroy)
p5379
tp5380
g0
(g14
g2
Ntp5381
Rp5382
(dp5383
g18
F0.5
sg19
I52
sg20
g21
((dp5384
I00
I52
stp5385
Rp5386
sg25
I2
sg26
F53.0
sbs(g8
Vcontains(ap)
p5387
tp5388
g0
(g14
g2
Ntp5389
Rp5390
(dp5391
g18
F0.5
sg19
I52
sg20
g21
((dp5392
I00
I51
sI01
I1
stp5393
Rp5394
sg25
I2
sg26
F53.0
sbs(g9
Vcontains(erupt)
p5395
tp5396
g0
(g14
g2
Ntp5397
Rp5398
(dp5399
g18
F0.5
sg19
I46
sg20
g21
((dp5400
I00
I45
sI01
I1
stp5401
Rp5402
sg25
I2
sg26
F47.0
sbs(g8
Vcontains(not_domin)
p5403
tp5404
g0
(g14
g2
Ntp5405
Rp5406
(dp5407
g18
F0.5
sg19
I52
sg20
g21
((dp5408
I00
I51
sI01
I1
stp5409
Rp5410
sg25
I2
sg26
F53.0
sbs(g8
Vcontains(not_se)
p5411
tp5412
g0
(g14
g2
Ntp5413
Rp5414
(dp5415
g18
F0.5
sg19
I52
sg20
g21
((dp5416
I00
I52
stp5417
Rp5418
sg25
I2
sg26
F53.0
sbs(g8
Vcontains(sent)
p5419
tp5420
g0
(g14
g2
Ntp5421
Rp5422
(dp5423
g18
F0.5
sg19
I52
sg20
g21
((dp5424
I00
I52
stp5425
Rp5426
sg25
I2
sg26
F53.0
sbs(g9
Vcontains(endors)
p5427
tp5428
g0
(g14
g2
Ntp5429
Rp5430
(dp5431
g18
F0.5
sg19
I46
sg20
g21
((dp5432
I00
I45
sI01
I1
stp5433
Rp5434
sg25
I2
sg26
F47.0
sbs(g8
Vcontains(eli)
p5435
tp5436
g0
(g14
g2
Ntp5437
Rp5438
(dp5439
g18
F0.5
sg19
I52
sg20
g21
((dp5440
I00
I52
stp5441
Rp5442
sg25
I2
sg26
F53.0
sbs(g8
Vcontains(injustic)
p5443
tp5444
g0
(g14
g2
Ntp5445
Rp5446
(dp5447
g18
F0.5
sg19
I52
sg20
g21
((dp5448
I00
I52
stp5449
Rp5450
sg25
I2
sg26
F53.0
sbs(g8
Vcontains(husband)
p5451
tp5452
g0
(g14
g2
Ntp5453
Rp5454
(dp5455
g18
F0.5
sg19
I52
sg20
g21
((dp5456
I00
I52
stp5457
Rp5458
sg25
I2
sg26
F53.0
sbs(g9
Vcontains(better)
p5459
tp5460
g0
(g14
g2
Ntp5461
Rp5462
(dp5463
g18
F0.5
sg19
I46
sg20
g21
((dp5464
I00
I46
stp5465
Rp5466
sg25
I2
sg26
F47.0
sbs(g9
Vcontains(danger)
p5467
tp5468
g0
(g14
g2
Ntp5469
Rp5470
(dp5471
g18
F0.5
sg19
I46
sg20
g21
((dp5472
I00
I45
sI01
I1
stp5473
Rp5474
sg25
I2
sg26
F47.0
sbs(g8
Vcontains(here)
p5475
tp5476
g0
(g14
g2
Ntp5477
Rp5478
(dp5479
g18
F0.5
sg19
I52
sg20
g21
((dp5480
I00
I51
sI01
I1
stp5481
Rp5482
sg25
I2
sg26
F53.0
sbs(g9
Vcontains(mental)
p5483
tp5484
g0
(g14
g2
Ntp5485
Rp5486
(dp5487
g18
F0.5
sg19
I46
sg20
g21
((dp5488
I00
I46
stp5489
Rp5490
sg25
I2
sg26
F47.0
sbs(g9
Vcontains(valu)
p5491
tp5492
g0
(g14
g2
Ntp5493
Rp5494
(dp5495
g18
F0.5
sg19
I46
sg20
g21
((dp5496
I00
I46
stp5497
Rp5498
sg25
I2
sg26
F47.0
sbs(g9
Vcontains(care)
p5499
tp5500
g0
(g14
g2
Ntp5501
Rp5502
(dp5503
g18
F0.5
sg19
I46
sg20
g21
((dp5504
I00
I46
stp5505
Rp5506
sg25
I2
sg26
F47.0
sbs(g8
Vcontains(not_obstruct)
p5507
tp5508
g0
(g14
g2
Ntp5509
Rp5510
(dp5511
g18
F0.5
sg19
I52
sg20
g21
((dp5512
I00
I52
stp5513
Rp5514
sg25
I2
sg26
F53.0
sbs(g9
Vcontains(young)
p5515
tp5516
g0
(g14
g2
Ntp5517
Rp5518
(dp5519
g18
F0.5
sg19
I46
sg20
g21
((dp5520
I00
I46
stp5521
Rp5522
sg25
I2
sg26
F47.0
sbs(g9
Vcontains(here)
p5523
tp5524
g0
(g14
g2
Ntp5525
Rp5526
(dp5527
g18
F0.5
sg19
I46
sg20
g21
((dp5528
I00
I45
sI01
I1
stp5529
Rp5530
sg25
I2
sg26
F47.0
sbs(g9
Vcontains(arm)
p5531
tp5532
g0
(g14
g2
Ntp5533
Rp5534
(dp5535
g18
F0.5
sg19
I46
sg20
g21
((dp5536
I00
I45
sI01
I1
stp5537
Rp5538
sg25
I2
sg26
F47.0
sbs(g8
Vcontains(not_want)
p5539
tp5540
g0
(g14
g2
Ntp5541
Rp5542
(dp5543
g18
F0.5
sg19
I52
sg20
g21
((dp5544
I00
I52
stp5545
Rp5546
sg25
I2
sg26
F53.0
sbs(g8
Vcontains(stoke)
p5547
tp5548
g0
(g14
g2
Ntp5549
Rp5550
(dp5551
g18
F0.5
sg19
I52
sg20
g21
((dp5552
I00
I51
sI01
I1
stp5553
Rp5554
sg25
I2
sg26
F53.0
sbs(g8
Vcontains(iraqi)
p5555
tp5556
g0
(g14
g2
Ntp5557
Rp5558
(dp5559
g18
F0.5
sg19
I52
sg20
g21
((dp5560
I00
I51
sI01
I1
stp5561
Rp5562
sg25
I2
sg26
F53.0
sbs(g9
Vcontains(not_servic)
p5563
tp5564
g0
(g14
g2
Ntp5565
Rp5566
(dp5567
g18
F0.5
sg19
I46
sg20
g21
((dp5568
I00
I45
sI01
I1
stp5569
Rp5570
sg25
I2
sg26
F47.0
sbs(g9
Vcontains(hondura)
p5571
tp5572
g0
(g14
g2
Ntp5573
Rp5574
(dp5575
g18
F0.5
sg19
I46
sg20
g21
((dp5576
I00
I46
stp5577
Rp5578
sg25
I2
sg26
F47.0
sbs(g9
Vcontains(corrin)
p5579
tp5580
g0
(g14
g2
Ntp5581
Rp5582
(dp5583
g18
F0.5
sg19
I46
sg20
g21
((dp5584
I00
I46
stp5585
Rp5586
sg25
I2
sg26
F47.0
sbs(g9
Vcontains(not_truth)
p5587
tp5588
g0
(g14
g2
Ntp5589
Rp5590
(dp5591
g18
F0.5
sg19
I46
sg20
g21
((dp5592
I00
I45
sI01
I1
stp5593
Rp5594
sg25
I2
sg26
F47.0
sbs(g9
Vcontains(buddi)
p5595
tp5596
g0
(g14
g2
Ntp5597
Rp5598
(dp5599
g18
F0.5
sg19
I46
sg20
g21
((dp5600
I00
I45
sI01
I1
stp5601
Rp5602
sg25
I2
sg26
F47.0
sbs(g9
Vcontains(blame)
p5603
tp5604
g0
(g14
g2
Ntp5605
Rp5606
(dp5607
g18
F0.5
sg19
I46
sg20
g21
((dp5608
I00
I46
stp5609
Rp5610
sg25
I2
sg26
F47.0
sbs(g9
Vcontains(li)
p5611
tp5612
g0
(g14
g2
Ntp5613
Rp5614
(dp5615
g18
F0.5
sg19
I46
sg20
g21
((dp5616
I00
I45
sI01
I1
stp5617
Rp5618
sg25
I2
sg26
F47.0
sbs(g8
Vcontains(newli)
p5619
tp5620
g0
(g14
g2
Ntp5621
Rp5622
(dp5623
g18
F0.5
sg19
I52
sg20
g21
((dp5624
I00
I52
stp5625
Rp5626
sg25
I2
sg26
F53.0
sbs(g9
Vcontains(democrat)
p5627
tp5628
g0
(g14
g2
Ntp5629
Rp5630
(dp5631
g18
F0.5
sg19
I46
sg20
g21
((dp5632
I00
I43
sI01
I3
stp5633
Rp5634
sg25
I2
sg26
F47.0
sbs(g8
Vcontains(think)
p5635
tp5636
g0
(g14
g2
Ntp5637
Rp5638
(dp5639
g18
F0.5
sg19
I52
sg20
g21
((dp5640
I00
I51
sI01
I1
stp5641
Rp5642
sg25
I2
sg26
F53.0
sbs(g9
Vcontains(plan)
p5643
tp5644
g0
(g14
g2
Ntp5645
Rp5646
(dp5647
g18
F0.5
sg19
I46
sg20
g21
((dp5648
I00
I44
sI01
I2
stp5649
Rp5650
sg25
I2
sg26
F47.0
sbs(g8
Vcontains(readi)
p5651
tp5652
g0
(g14
g2
Ntp5653
Rp5654
(dp5655
g18
F0.5
sg19
I52
sg20
g21
((dp5656
I00
I51
sI01
I1
stp5657
Rp5658
sg25
I2
sg26
F53.0
sbs(g9
Vcontains(children)
p5659
tp5660
g0
(g14
g2
Ntp5661
Rp5662
(dp5663
g18
F0.5
sg19
I46
sg20
g21
((dp5664
I00
I46
stp5665
Rp5666
sg25
I2
sg26
F47.0
sbs(g8
Vcontains(liar)
p5667
tp5668
g0
(g14
g2
Ntp5669
Rp5670
(dp5671
g18
F0.5
sg19
I52
sg20
g21
((dp5672
I00
I52
stp5673
Rp5674
sg25
I2
sg26
F53.0
sbs(g8
Vcontains(not_hateit)
p5675
tp5676
g0
(g14
g2
Ntp5677
Rp5678
(dp5679
g18
F0.5
sg19
I52
sg20
g21
((dp5680
I00
I52
stp5681
Rp5682
sg25
I2
sg26
F53.0
sbs(g8
Vcontains(stay)
p5683
tp5684
g0
(g14
g2
Ntp5685
Rp5686
(dp5687
g18
F0.5
sg19
I52
sg20
g21
((dp5688
I00
I51
sI01
I1
stp5689
Rp5690
sg25
I2
sg26
F53.0
sbs(g8
Vcontains(not_afford)
p5691
tp5692
g0
(g14
g2
Ntp5693
Rp5694
(dp5695
g18
F0.5
sg19
I52
sg20
g21
((dp5696
I00
I52
stp5697
Rp5698
sg25
I2
sg26
F53.0
sbs(g8
Vcontains(your)
p5699
tp5700
g0
(g14
g2
Ntp5701
Rp5702
(dp5703
g18
F0.5
sg19
I52
sg20
g21
((dp5704
I00
I51
sI01
I1
stp5705
Rp5706
sg25
I2
sg26
F53.0
sbs(g9
Vcontains(thou)
p5707
tp5708
g0
(g14
g2
Ntp5709
Rp5710
(dp5711
g18
F0.5
sg19
I46
sg20
g21
((dp5712
I00
I46
stp5713
Rp5714
sg25
I2
sg26
F47.0
sbs(g9
Vcontains(columnist)
p5715
tp5716
g0
(g14
g2
Ntp5717
Rp5718
(dp5719
g18
F0.5
sg19
I46
sg20
g21
((dp5720
I00
I42
sI01
I4
stp5721
Rp5722
sg25
I2
sg26
F47.0
sbs(g8
Vcontains(dillard)
p5723
tp5724
g0
(g14
g2
Ntp5725
Rp5726
(dp5727
g18
F0.5
sg19
I52
sg20
g21
((dp5728
I00
I52
stp5729
Rp5730
sg25
I2
sg26
F53.0
sbs(g9
Vcontains(ask)
p5731
tp5732
g0
(g14
g2
Ntp5733
Rp5734
(dp5735
g18
F0.5
sg19
I46
sg20
g21
((dp5736
I00
I46
stp5737
Rp5738
sg25
I2
sg26
F47.0
sbs(g9
Vcontains(coloni)
p5739
tp5740
g0
(g14
g2
Ntp5741
Rp5742
(dp5743
g18
F0.5
sg19
I46
sg20
g21
((dp5744
I00
I46
stp5745
Rp5746
sg25
I2
sg26
F47.0
sbs(g9
Vcontains(live)
p5747
tp5748
g0
(g14
g2
Ntp5749
Rp5750
(dp5751
g18
F0.5
sg19
I46
sg20
g21
((dp5752
I00
I46
stp5753
Rp5754
sg25
I2
sg26
F47.0
sbs(g9
Vcontains(vot)
p5755
tp5756
g0
(g14
g2
Ntp5757
Rp5758
(dp5759
g18
F0.5
sg19
I46
sg20
g21
((dp5760
I00
I46
stp5761
Rp5762
sg25
I2
sg26
F47.0
sbs(g8
Vcontains(buddi)
p5763
tp5764
g0
(g14
g2
Ntp5765
Rp5766
(dp5767
g18
F0.5
sg19
I52
sg20
g21
((dp5768
I00
I52
stp5769
Rp5770
sg25
I2
sg26
F53.0
sbs(g8
Vcontains(laid)
p5771
tp5772
g0
(g14
g2
Ntp5773
Rp5774
(dp5775
g18
F0.5
sg19
I52
sg20
g21
((dp5776
I00
I52
stp5777
Rp5778
sg25
I2
sg26
F53.0
sbs(g8
Vcontains(mental)
p5779
tp5780
g0
(g14
g2
Ntp5781
Rp5782
(dp5783
g18
F0.5
sg19
I52
sg20
g21
((dp5784
I00
I51
sI01
I1
stp5785
Rp5786
sg25
I2
sg26
F53.0
sbs(g9
Vcontains(presid)
p5787
tp5788
g0
(g14
g2
Ntp5789
Rp5790
(dp5791
g18
F0.5
sg19
I46
sg20
g21
((dp5792
I00
I46
stp5793
Rp5794
sg25
I2
sg26
F47.0
sbs(g8
Vcontains(hudson)
p5795
tp5796
g0
(g14
g2
Ntp5797
Rp5798
(dp5799
g18
F0.5
sg19
I52
sg20
g21
((dp5800
I00
I52
stp5801
Rp5802
sg25
I2
sg26
F53.0
sbs(g9
Vcontains(cridlin)
p5803
tp5804
g0
(g14
g2
Ntp5805
Rp5806
(dp5807
g18
F0.5
sg19
I46
sg20
g21
((dp5808
I00
I45
sI01
I1
stp5809
Rp5810
sg25
I2
sg26
F47.0
sbs(g8
Vcontains(believ)
p5811
tp5812
g0
(g14
g2
Ntp5813
Rp5814
(dp5815
g18
F0.5
sg19
I52
sg20
g21
((dp5816
I00
I51
sI01
I1
stp5817
Rp5818
sg25
I2
sg26
F53.0
sbs(g9
Vcontains(card)
p5819
tp5820
g0
(g14
g2
Ntp5821
Rp5822
(dp5823
g18
F0.5
sg19
I46
sg20
g21
((dp5824
I00
I46
stp5825
Rp5826
sg25
I2
sg26
F47.0
sbs(g8
Vcontains(not_support)
p5827
tp5828
g0
(g14
g2
Ntp5829
Rp5830
(dp5831
g18
F0.5
sg19
I52
sg20
g21
((dp5832
I00
I51
sI01
I1
stp5833
Rp5834
sg25
I2
sg26
F53.0
sbs(g8
Vcontains(iraq)
p5835
tp5836
g0
(g14
g2
Ntp5837
Rp5838
(dp5839
g18
F0.5
sg19
I52
sg20
g21
((dp5840
I00
I52
stp5841
Rp5842
sg25
I2
sg26
F53.0
sbs(g9
Vcontains(not_blam)
p5843
tp5844
g0
(g14
g2
Ntp5845
Rp5846
(dp5847
g18
F0.5
sg19
I46
sg20
g21
((dp5848
I00
I46
stp5849
Rp5850
sg25
I2
sg26
F47.0
sbs(g9
Vcontains(argu)
p5851
tp5852
g0
(g14
g2
Ntp5853
Rp5854
(dp5855
g18
F0.5
sg19
I46
sg20
g21
((dp5856
I00
I46
stp5857
Rp5858
sg25
I2
sg26
F47.0
sbs(g9
Vcontains(u)
p5859
tp5860
g0
(g14
g2
Ntp5861
Rp5862
(dp5863
g18
F0.5
sg19
I46
sg20
g21
((dp5864
I00
I44
sI01
I2
stp5865
Rp5866
sg25
I2
sg26
F47.0
sbs(g9
Vcontains(bigger)
p5867
tp5868
g0
(g14
g2
Ntp5869
Rp5870
(dp5871
g18
F0.5
sg19
I46
sg20
g21
((dp5872
I00
I46
stp5873
Rp5874
sg25
I2
sg26
F47.0
sbs(g9
Vcontains(cop)
p5875
tp5876
g0
(g14
g2
Ntp5877
Rp5878
(dp5879
g18
F0.5
sg19
I46
sg20
g21
((dp5880
I00
I46
stp5881
Rp5882
sg25
I2
sg26
F47.0
sbs(g8
Vcontains(realli)
p5883
tp5884
g0
(g14
g2
Ntp5885
Rp5886
(dp5887
g18
F0.5
sg19
I52
sg20
g21
((dp5888
I00
I51
sI01
I1
stp5889
Rp5890
sg25
I2
sg26
F53.0
sbs(g8
Vcontains(not_sh)
p5891
tp5892
g0
(g14
g2
Ntp5893
Rp5894
(dp5895
g18
F0.5
sg19
I52
sg20
g21
((dp5896
I00
I51
sI01
I1
stp5897
Rp5898
sg25
I2
sg26
F53.0
sbs(g8
Vcontains(black)
p5899
tp5900
g0
(g14
g2
Ntp5901
Rp5902
(dp5903
g18
F0.5
sg19
I52
sg20
g21
((dp5904
I00
I49
sI01
I3
stp5905
Rp5906
sg25
I2
sg26
F53.0
sbs(g8
Vcontains(everyon)
p5907
tp5908
g0
(g14
g2
Ntp5909
Rp5910
(dp5911
g18
F0.5
sg19
I52
sg20
g21
((dp5912
I00
I51
sI01
I1
stp5913
Rp5914
sg25
I2
sg26
F53.0
sbs(g8
Vcontains(jail)
p5915
tp5916
g0
(g14
g2
Ntp5917
Rp5918
(dp5919
g18
F0.5
sg19
I52
sg20
g21
((dp5920
I00
I51
sI01
I1
stp5921
Rp5922
sg25
I2
sg26
F53.0
sbs(g8
Vcontains(not_gain)
p5923
tp5924
g0
(g14
g2
Ntp5925
Rp5926
(dp5927
g18
F0.5
sg19
I52
sg20
g21
((dp5928
I00
I52
stp5929
Rp5930
sg25
I2
sg26
F53.0
sbs(g9
Vcontains(win)
p5931
tp5932
g0
(g14
g2
Ntp5933
Rp5934
(dp5935
g18
F0.5
sg19
I46
sg20
g21
((dp5936
I00
I45
sI01
I1
stp5937
Rp5938
sg25
I2
sg26
F47.0
sbs(g9
Vcontains(trey)
p5939
tp5940
g0
(g14
g2
Ntp5941
Rp5942
(dp5943
g18
F0.5
sg19
I46
sg20
g21
((dp5944
I00
I45
sI01
I1
stp5945
Rp5946
sg25
I2
sg26
F47.0
sbs(g9
Vcontains(realli)
p5947
tp5948
g0
(g14
g2
Ntp5949
Rp5950
(dp5951
g18
F0.5
sg19
I46
sg20
g21
((dp5952
I00
I45
sI01
I1
stp5953
Rp5954
sg25
I2
sg26
F47.0
sbs(g9
Vcontains(expect)
p5955
tp5956
g0
(g14
g2
Ntp5957
Rp5958
(dp5959
g18
F0.5
sg19
I46
sg20
g21
((dp5960
I00
I45
sI01
I1
stp5961
Rp5962
sg25
I2
sg26
F47.0
sbs(g9
Vcontains(america)
p5963
tp5964
g0
(g14
g2
Ntp5965
Rp5966
(dp5967
g18
F0.5
sg19
I46
sg20
g21
((dp5968
I00
I46
stp5969
Rp5970
sg25
I2
sg26
F47.0
sbs(g8
Vcontains(communiti)
p5971
tp5972
g0
(g14
g2
Ntp5973
Rp5974
(dp5975
g18
F0.5
sg19
I52
sg20
g21
((dp5976
I00
I51
sI01
I1
stp5977
Rp5978
sg25
I2
sg26
F53.0
sbs(g9
Vcontains(liar)
p5979
tp5980
g0
(g14
g2
Ntp5981
Rp5982
(dp5983
g18
F0.5
sg19
I46
sg20
g21
((dp5984
I00
I45
sI01
I1
stp5985
Rp5986
sg25
I2
sg26
F47.0
sbs(g8
Vcontains(valu)
p5987
tp5988
g0
(g14
g2
Ntp5989
Rp5990
(dp5991
g18
F0.5
sg19
I52
sg20
g21
((dp5992
I00
I51
sI01
I1
stp5993
Rp5994
sg25
I2
sg26
F53.0
sbs(g9
Vcontains(sin)
p5995
tp5996
g0
(g14
g2
Ntp5997
Rp5998
(dp5999
g18
F0.5
sg19
I46
sg20
g21
((dp6000
I00
I46
stp6001
Rp6002
sg25
I2
sg26
F47.0
sbs(g8
Vcontains(appoint)
p6003
tp6004
g0
(g14
g2
Ntp6005
Rp6006
(dp6007
g18
F0.5
sg19
I52
sg20
g21
((dp6008
I00
I51
sI01
I1
stp6009
Rp6010
sg25
I2
sg26
F53.0
sbs(g8
Vcontains(gun)
p6011
tp6012
g0
(g14
g2
Ntp6013
Rp6014
(dp6015
g18
F0.5
sg19
I52
sg20
g21
((dp6016
I00
I52
stp6017
Rp6018
sg25
I2
sg26
F53.0
sbs(g9
Vcontains(offens)
p6019
tp6020
g0
(g14
g2
Ntp6021
Rp6022
(dp6023
g18
F0.5
sg19
I46
sg20
g21
((dp6024
I00
I46
stp6025
Rp6026
sg25
I2
sg26
F47.0
sbs(g9
Vcontains(congresswoman)
p6027
tp6028
g0
(g14
g2
Ntp6029
Rp6030
(dp6031
g18
F0.5
sg19
I46
sg20
g21
((dp6032
I00
I45
sI01
I1
stp6033
Rp6034
sg25
I2
sg26
F47.0
sbs(g9
Vcontains(deserv)
p6035
tp6036
g0
(g14
g2
Ntp6037
Rp6038
(dp6039
g18
F0.5
sg19
I46
sg20
g21
((dp6040
I00
I46
stp6041
Rp6042
sg25
I2
sg26
F47.0
sbs(g9
Vcontains(kept)
p6043
tp6044
g0
(g14
g2
Ntp6045
Rp6046
(dp6047
g18
F0.5
sg19
I46
sg20
g21
((dp6048
I00
I45
sI01
I1
stp6049
Rp6050
sg25
I2
sg26
F47.0
sbs(g9
Vcontains(not_dem)
p6051
tp6052
g0
(g14
g2
Ntp6053
Rp6054
(dp6055
g18
F0.5
sg19
I46
sg20
g21
((dp6056
I00
I46
stp6057
Rp6058
sg25
I2
sg26
F47.0
sbs(g8
Vcontains(muslim)
p6059
tp6060
g0
(g14
g2
Ntp6061
Rp6062
(dp6063
g18
F0.5
sg19
I52
sg20
g21
((dp6064
I00
I52
stp6065
Rp6066
sg25
I2
sg26
F53.0
sbs(g9
Vcontains(child)
p6067
tp6068
g0
(g14
g2
Ntp6069
Rp6070
(dp6071
g18
F0.5
sg19
I46
sg20
g21
((dp6072
I00
I45
sI01
I1
stp6073
Rp6074
sg25
I2
sg26
F47.0
sbs(g8
Vcontains(not_publ)
p6075
tp6076
g0
(g14
g2
Ntp6077
Rp6078
(dp6079
g18
F0.5
sg19
I52
sg20
g21
((dp6080
I00
I52
stp6081
Rp6082
sg25
I2
sg26
F53.0
sbs(g8
Vcontains(base)
p6083
tp6084
g0
(g14
g2
Ntp6085
Rp6086
(dp6087
g18
F0.5
sg19
I52
sg20
g21
((dp6088
I00
I51
sI01
I1
stp6089
Rp6090
sg25
I2
sg26
F53.0
sbs(g9
Vcontains(made)
p6091
tp6092
g0
(g14
g2
Ntp6093
Rp6094
(dp6095
g18
F0.5
sg19
I46
sg20
g21
((dp6096
I00
I46
stp6097
Rp6098
sg25
I2
sg26
F47.0
sbs(g9
Vcontains(make)
p6099
tp6100
g0
(g14
g2
Ntp6101
Rp6102
(dp6103
g18
F0.5
sg19
I46
sg20
g21
((dp6104
I00
I45
sI01
I1
stp6105
Rp6106
sg25
I2
sg26
F47.0
sbs(g9
Vcontains(lol)
p6107
tp6108
g0
(g14
g2
Ntp6109
Rp6110
(dp6111
g18
F0.5
sg19
I46
sg20
g21
((dp6112
I00
I46
stp6113
Rp6114
sg25
I2
sg26
F47.0
sbs(g8
Vcontains(koch)
p6115
tp6116
g0
(g14
g2
Ntp6117
Rp6118
(dp6119
g18
F0.5
sg19
I52
sg20
g21
((dp6120
I00
I52
stp6121
Rp6122
sg25
I2
sg26
F53.0
sbs(g9
Vcontains(anyth)
p6123
tp6124
g0
(g14
g2
Ntp6125
Rp6126
(dp6127
g18
F0.5
sg19
I46
sg20
g21
((dp6128
I00
I45
sI01
I1
stp6129
Rp6130
sg25
I2
sg26
F47.0
sbs(g9
Vcontains(lyin)
p6131
tp6132
g0
(g14
g2
Ntp6133
Rp6134
(dp6135
g18
F0.5
sg19
I46
sg20
g21
((dp6136
I00
I46
stp6137
Rp6138
sg25
I2
sg26
F47.0
sbs(g9
Vcontains(appear)
p6139
tp6140
g0
(g14
g2
Ntp6141
Rp6142
(dp6143
g18
F0.5
sg19
I46
sg20
g21
((dp6144
I00
I45
sI01
I1
stp6145
Rp6146
sg25
I2
sg26
F47.0
sbs(g9
Vcontains(frack)
p6147
tp6148
g0
(g14
g2
Ntp6149
Rp6150
(dp6151
g18
F0.5
sg19
I46
sg20
g21
((dp6152
I00
I45
sI01
I1
stp6153
Rp6154
sg25
I2
sg26
F47.0
sbs(g8
Vcontains(mail)
p6155
tp6156
g0
(g14
g2
Ntp6157
Rp6158
(dp6159
g18
F0.5
sg19
I52
sg20
g21
((dp6160
I00
I51
sI01
I1
stp6161
Rp6162
sg25
I2
sg26
F53.0
sbs(g8
Vcontains(owe)
p6163
tp6164
g0
(g14
g2
Ntp6165
Rp6166
(dp6167
g18
F0.5
sg19
I52
sg20
g21
((dp6168
I00
I49
sI01
I3
stp6169
Rp6170
sg25
I2
sg26
F53.0
sbs(g9
Vcontains(part)
p6171
tp6172
g0
(g14
g2
Ntp6173
Rp6174
(dp6175
g18
F0.5
sg19
I46
sg20
g21
((dp6176
I00
I46
stp6177
Rp6178
sg25
I2
sg26
F47.0
sbs(g9
Vcontains(neighbor)
p6179
tp6180
g0
(g14
g2
Ntp6181
Rp6182
(dp6183
g18
F0.5
sg19
I46
sg20
g21
((dp6184
I00
I46
stp6185
Rp6186
sg25
I2
sg26
F47.0
sbs(g9
Vcontains(health)
p6187
tp6188
g0
(g14
g2
Ntp6189
Rp6190
(dp6191
g18
F0.5
sg19
I46
sg20
g21
((dp6192
I00
I46
stp6193
Rp6194
sg25
I2
sg26
F47.0
sbs(g9
Vcontains(let)
p6195
tp6196
g0
(g14
g2
Ntp6197
Rp6198
(dp6199
g18
F0.5
sg19
I46
sg20
g21
((dp6200
I00
I45
sI01
I1
stp6201
Rp6202
sg25
I2
sg26
F47.0
sbs(g9
Vcontains(mail)
p6203
tp6204
g0
(g14
g2
Ntp6205
Rp6206
(dp6207
g18
F0.5
sg19
I46
sg20
g21
((dp6208
I00
I46
stp6209
Rp6210
sg25
I2
sg26
F47.0
sbs(g9
Vcontains(not_centur)
p6211
tp6212
g0
(g14
g2
Ntp6213
Rp6214
(dp6215
g18
F0.5
sg19
I46
sg20
g21
((dp6216
I00
I46
stp6217
Rp6218
sg25
I2
sg26
F47.0
sbs(g8
Vcontains(reckless)
p6219
tp6220
g0
(g14
g2
Ntp6221
Rp6222
(dp6223
g18
F0.5
sg19
I52
sg20
g21
((dp6224
I00
I51
sI01
I1
stp6225
Rp6226
sg25
I2
sg26
F53.0
sbs(g8
Vcontains(entertain)
p6227
tp6228
g0
(g14
g2
Ntp6229
Rp6230
(dp6231
g18
F0.5
sg19
I52
sg20
g21
((dp6232
I00
I51
sI01
I1
stp6233
Rp6234
sg25
I2
sg26
F53.0
sbs(g8
Vcontains(contamin)
p6235
tp6236
g0
(g14
g2
Ntp6237
Rp6238
(dp6239
g18
F0.5
sg19
I52
sg20
g21
((dp6240
I00
I48
sI01
I4
stp6241
Rp6242
sg25
I2
sg26
F53.0
sbs(g8
Vcontains(methodist)
p6243
tp6244
g0
(g14
g2
Ntp6245
Rp6246
(dp6247
g18
F0.5
sg19
I52
sg20
g21
((dp6248
I00
I51
sI01
I1
stp6249
Rp6250
sg25
I2
sg26
F53.0
sbs(g8
Vcontains(georg)
p6251
tp6252
g0
(g14
g2
Ntp6253
Rp6254
(dp6255
g18
F0.5
sg19
I52
sg20
g21
((dp6256
I00
I52
stp6257
Rp6258
sg25
I2
sg26
F53.0
sbs(g8
Vcontains(michael)
p6259
tp6260
g0
(g14
g2
Ntp6261
Rp6262
(dp6263
g18
F0.5
sg19
I52
sg20
g21
((dp6264
I00
I52
stp6265
Rp6266
sg25
I2
sg26
F53.0
sbs(g8
Vcontains(ur)
p6267
tp6268
g0
(g14
g2
Ntp6269
Rp6270
(dp6271
g18
F0.5
sg19
I52
sg20
g21
((dp6272
I00
I52
stp6273
Rp6274
sg25
I2
sg26
F53.0
sbs(g9
Vcontains(gaza)
p6275
tp6276
g0
(g14
g2
Ntp6277
Rp6278
(dp6279
g18
F0.5
sg19
I46
sg20
g21
((dp6280
I00
I46
stp6281
Rp6282
sg25
I2
sg26
F47.0
sbs(g8
Vcontains(congresswoman)
p6283
tp6284
g0
(g14
g2
Ntp6285
Rp6286
(dp6287
g18
F0.5
sg19
I52
sg20
g21
((dp6288
I00
I52
stp6289
Rp6290
sg25
I2
sg26
F53.0
sbs(g8
Vcontains(sugar)
p6291
tp6292
g0
(g14
g2
Ntp6293
Rp6294
(dp6295
g18
F0.5
sg19
I52
sg20
g21
((dp6296
I00
I52
stp6297
Rp6298
sg25
I2
sg26
F53.0
sbs(g9
Vcontains(not_histori)
p6299
tp6300
g0
(g14
g2
Ntp6301
Rp6302
(dp6303
g18
F0.5
sg19
I46
sg20
g21
((dp6304
I00
I45
sI01
I1
stp6305
Rp6306
sg25
I2
sg26
F47.0
sbs(g9
Vcontains(were)
p6307
tp6308
g0
(g14
g2
Ntp6309
Rp6310
(dp6311
g18
F0.5
sg19
I46
sg20
g21
((dp6312
I00
I45
sI01
I1
stp6313
Rp6314
sg25
I2
sg26
F47.0
sbs(g8
Vcontains(toscrew)
p6315
tp6316
g0
(g14
g2
Ntp6317
Rp6318
(dp6319
g18
F0.5
sg19
I52
sg20
g21
((dp6320
I00
I52
stp6321
Rp6322
sg25
I2
sg26
F53.0
sbs(g8
Vcontains(care)
p6323
tp6324
g0
(g14
g2
Ntp6325
Rp6326
(dp6327
g18
F0.5
sg19
I52
sg20
g21
((dp6328
I00
I49
sI01
I3
stp6329
Rp6330
sg25
I2
sg26
F53.0
sbs(g9
Vcontains(gonna)
p6331
tp6332
g0
(g14
g2
Ntp6333
Rp6334
(dp6335
g18
F0.5
sg19
I46
sg20
g21
((dp6336
I00
I42
sI01
I4
stp6337
Rp6338
sg25
I2
sg26
F47.0
sbs(g9
Vcontains(bee)
p6339
tp6340
g0
(g14
g2
Ntp6341
Rp6342
(dp6343
g18
F0.5
sg19
I46
sg20
g21
((dp6344
I00
I45
sI01
I1
stp6345
Rp6346
sg25
I2
sg26
F47.0
sbs(g9
Vcontains(option)
p6347
tp6348
g0
(g14
g2
Ntp6349
Rp6350
(dp6351
g18
F0.5
sg19
I46
sg20
g21
((dp6352
I00
I46
stp6353
Rp6354
sg25
I2
sg26
F47.0
sbs(g8
Vcontains(not_american)
p6355
tp6356
g0
(g14
g2
Ntp6357
Rp6358
(dp6359
g18
F0.5
sg19
I52
sg20
g21
((dp6360
I00
I52
stp6361
Rp6362
sg25
I2
sg26
F53.0
sbs(g8
Vcontains(wire)
p6363
tp6364
g0
(g14
g2
Ntp6365
Rp6366
(dp6367
g18
F0.5
sg19
I52
sg20
g21
((dp6368
I00
I51
sI01
I1
stp6369
Rp6370
sg25
I2
sg26
F53.0
sbs(g8
Vcontains(break)
p6371
tp6372
g0
(g14
g2
Ntp6373
Rp6374
(dp6375
g18
F0.5
sg19
I52
sg20
g21
((dp6376
I00
I52
stp6377
Rp6378
sg25
I2
sg26
F53.0
sbs(g9
Vcontains(cuz)
p6379
tp6380
g0
(g14
g2
Ntp6381
Rp6382
(dp6383
g18
F0.5
sg19
I46
sg20
g21
((dp6384
I00
I46
stp6385
Rp6386
sg25
I2
sg26
F47.0
sbs(g9
Vcontains(not_sh)
p6387
tp6388
g0
(g14
g2
Ntp6389
Rp6390
(dp6391
g18
F0.5
sg19
I46
sg20
g21
((dp6392
I00
I46
stp6393
Rp6394
sg25
I2
sg26
F47.0
sbs(g8
Vcontains(indict)
p6395
tp6396
g0
(g14
g2
Ntp6397
Rp6398
(dp6399
g18
F0.5
sg19
I52
sg20
g21
((dp6400
I00
I50
sI01
I2
stp6401
Rp6402
sg25
I2
sg26
F53.0
sbs(g8
Vcontains(replac)
p6403
tp6404
g0
(g14
g2
Ntp6405
Rp6406
(dp6407
g18
F0.5
sg19
I52
sg20
g21
((dp6408
I00
I52
stp6409
Rp6410
sg25
I2
sg26
F53.0
sbs(g8
Vcontains(carri)
p6411
tp6412
g0
(g14
g2
Ntp6413
Rp6414
(dp6415
g18
F0.5
sg19
I52
sg20
g21
((dp6416
I00
I52
stp6417
Rp6418
sg25
I2
sg26
F53.0
sbs(g8
Vcontains(acknowledg)
p6419
tp6420
g0
(g14
g2
Ntp6421
Rp6422
(dp6423
g18
F0.5
sg19
I52
sg20
g21
((dp6424
I00
I51
sI01
I1
stp6425
Rp6426
sg25
I2
sg26
F53.0
sbs(g9
Vcontains(newli)
p6427
tp6428
g0
(g14
g2
Ntp6429
Rp6430
(dp6431
g18
F0.5
sg19
I46
sg20
g21
((dp6432
I00
I45
sI01
I1
stp6433
Rp6434
sg25
I2
sg26
F47.0
sbs(g9
Vcontains(indict)
p6435
tp6436
g0
(g14
g2
Ntp6437
Rp6438
(dp6439
g18
F0.5
sg19
I46
sg20
g21
((dp6440
I00
I44
sI01
I2
stp6441
Rp6442
sg25
I2
sg26
F47.0
sbs(g8
Vcontains(imagin)
p6443
tp6444
g0
(g14
g2
Ntp6445
Rp6446
(dp6447
g18
F0.5
sg19
I52
sg20
g21
((dp6448
I00
I52
stp6449
Rp6450
sg25
I2
sg26
F53.0
sbs(g9
Vcontains(white)
p6451
tp6452
g0
(g14
g2
Ntp6453
Rp6454
(dp6455
g18
F0.5
sg19
I46
sg20
g21
((dp6456
I00
I45
sI01
I1
stp6457
Rp6458
sg25
I2
sg26
F47.0
sbs(g9
Vcontains(also)
p6459
tp6460
g0
(g14
g2
Ntp6461
Rp6462
(dp6463
g18
F0.5
sg19
I46
sg20
g21
((dp6464
I00
I45
sI01
I1
stp6465
Rp6466
sg25
I2
sg26
F47.0
sbs(g9
Vcontains(coin)
p6467
tp6468
g0
(g14
g2
Ntp6469
Rp6470
(dp6471
g18
F0.5
sg19
I46
sg20
g21
((dp6472
I00
I46
stp6473
Rp6474
sg25
I2
sg26
F47.0
sbs(g9
Vcontains(three)
p6475
tp6476
g0
(g14
g2
Ntp6477
Rp6478
(dp6479
g18
F0.5
sg19
I46
sg20
g21
((dp6480
I00
I45
sI01
I1
stp6481
Rp6482
sg25
I2
sg26
F47.0
sbs(g9
Vcontains(bravo)
p6483
tp6484
g0
(g14
g2
Ntp6485
Rp6486
(dp6487
g18
F0.5
sg19
I46
sg20
g21
((dp6488
I00
I46
stp6489
Rp6490
sg25
I2
sg26
F47.0
sbs(g8
Vcontains(address)
p6491
tp6492
g0
(g14
g2
Ntp6493
Rp6494
(dp6495
g18
F0.5
sg19
I52
sg20
g21
((dp6496
I00
I52
stp6497
Rp6498
sg25
I2
sg26
F53.0
sbs(g9
Vcontains(releas)
p6499
tp6500
g0
(g14
g2
Ntp6501
Rp6502
(dp6503
g18
F0.5
sg19
I46
sg20
g21
((dp6504
I00
I45
sI01
I1
stp6505
Rp6506
sg25
I2
sg26
F47.0
sbs(g9
Vcontains(stand)
p6507
tp6508
g0
(g14
g2
Ntp6509
Rp6510
(dp6511
g18
F0.5
sg19
I46
sg20
g21
((dp6512
I00
I46
stp6513
Rp6514
sg25
I2
sg26
F47.0
sbs(g8
Vcontains(count)
p6515
tp6516
g0
(g14
g2
Ntp6517
Rp6518
(dp6519
g18
F0.5
sg19
I52
sg20
g21
((dp6520
I00
I52
stp6521
Rp6522
sg25
I2
sg26
F53.0
sbs(g8
Vcontains(wh)
p6523
tp6524
g0
(g14
g2
Ntp6525
Rp6526
(dp6527
g18
F0.5
sg19
I52
sg20
g21
((dp6528
I00
I52
stp6529
Rp6530
sg25
I2
sg26
F53.0
sbs(g9
Vcontains(address)
p6531
tp6532
g0
(g14
g2
Ntp6533
Rp6534
(dp6535
g18
F0.5
sg19
I46
sg20
g21
((dp6536
I00
I45
sI01
I1
stp6537
Rp6538
sg25
I2
sg26
F47.0
sbs(g9
Vcontains(stoke)
p6539
tp6540
g0
(g14
g2
Ntp6541
Rp6542
(dp6543
g18
F0.5
sg19
I46
sg20
g21
((dp6544
I00
I46
stp6545
Rp6546
sg25
I2
sg26
F47.0
sbs(g9
Vcontains(not_obstruct)
p6547
tp6548
g0
(g14
g2
Ntp6549
Rp6550
(dp6551
g18
F0.5
sg19
I46
sg20
g21
((dp6552
I00
I45
sI01
I1
stp6553
Rp6554
sg25
I2
sg26
F47.0
sbs(g9
Vcontains(sugar)
p6555
tp6556
g0
(g14
g2
Ntp6557
Rp6558
(dp6559
g18
F0.5
sg19
I46
sg20
g21
((dp6560
I00
I45
sI01
I1
stp6561
Rp6562
sg25
I2
sg26
F47.0
sbs(g9
Vcontains(dalla)
p6563
tp6564
g0
(g14
g2
Ntp6565
Rp6566
(dp6567
g18
F0.5
sg19
I46
sg20
g21
((dp6568
I00
I46
stp6569
Rp6570
sg25
I2
sg26
F47.0
sbs(g9
Vcontains(not_part)
p6571
tp6572
g0
(g14
g2
Ntp6573
Rp6574
(dp6575
g18
F0.5
sg19
I46
sg20
g21
((dp6576
I00
I46
stp6577
Rp6578
sg25
I2
sg26
F47.0
sbs(g8
Vcontains(administr)
p6579
tp6580
g0
(g14
g2
Ntp6581
Rp6582
(dp6583
g18
F0.5
sg19
I52
sg20
g21
((dp6584
I00
I52
stp6585
Rp6586
sg25
I2
sg26
F53.0
sbs(g9
Vcontains(shalt)
p6587
tp6588
g0
(g14
g2
Ntp6589
Rp6590
(dp6591
g18
F0.5
sg19
I46
sg20
g21
((dp6592
I00
I46
stp6593
Rp6594
sg25
I2
sg26
F47.0
sbs(g9
Vcontains(guy)
p6595
tp6596
g0
(g14
g2
Ntp6597
Rp6598
(dp6599
g18
F0.5
sg19
I46
sg20
g21
((dp6600
I00
I45
sI01
I1
stp6601
Rp6602
sg25
I2
sg26
F47.0
sbs(g8
Vcontains(white)
p6603
tp6604
g0
(g14
g2
Ntp6605
Rp6606
(dp6607
g18
F0.5
sg19
I52
sg20
g21
((dp6608
I00
I50
sI01
I2
stp6609
Rp6610
sg25
I2
sg26
F53.0
sbs(g8
Vcontains(charg)
p6611
tp6612
g0
(g14
g2
Ntp6613
Rp6614
(dp6615
g18
F0.5
sg19
I52
sg20
g21
((dp6616
I00
I51
sI01
I1
stp6617
Rp6618
sg25
I2
sg26
F53.0
sbs(g8
Vcontains(air)
p6619
tp6620
g0
(g14
g2
Ntp6621
Rp6622
(dp6623
g18
F0.5
sg19
I52
sg20
g21
((dp6624
I00
I51
sI01
I1
stp6625
Rp6626
sg25
I2
sg26
F53.0
sbs(g9
Vcontains(depart)
p6627
tp6628
g0
(g14
g2
Ntp6629
Rp6630
(dp6631
g18
F0.5
sg19
I46
sg20
g21
((dp6632
I00
I46
stp6633
Rp6634
sg25
I2
sg26
F47.0
sbs(g9
Vcontains(theyr)
p6635
tp6636
g0
(g14
g2
Ntp6637
Rp6638
(dp6639
g18
F0.5
sg19
I46
sg20
g21
((dp6640
I00
I46
stp6641
Rp6642
sg25
I2
sg26
F47.0
sbs(g8
Vcontains(rapist)
p6643
tp6644
g0
(g14
g2
Ntp6645
Rp6646
(dp6647
g18
F0.5
sg19
I52
sg20
g21
((dp6648
I00
I52
stp6649
Rp6650
sg25
I2
sg26
F53.0
sbs(g8
Vcontains(twitter)
p6651
tp6652
g0
(g14
g2
Ntp6653
Rp6654
(dp6655
g18
F0.5
sg19
I52
sg20
g21
((dp6656
I00
I51
sI01
I1
stp6657
Rp6658
sg25
I2
sg26
F53.0
sbs(g9
Vcontains(chariti)
p6659
tp6660
g0
(g14
g2
Ntp6661
Rp6662
(dp6663
g18
F0.5
sg19
I46
sg20
g21
((dp6664
I00
I46
stp6665
Rp6666
sg25
I2
sg26
F47.0
sbs(g9
Vcontains(absolut)
p6667
tp6668
g0
(g14
g2
Ntp6669
Rp6670
(dp6671
g18
F0.5
sg19
I46
sg20
g21
((dp6672
I00
I46
stp6673
Rp6674
sg25
I2
sg26
F47.0
sbs(g8
Vcontains(hate)
p6675
tp6676
g0
(g14
g2
Ntp6677
Rp6678
(dp6679
g18
F0.5
sg19
I52
sg20
g21
((dp6680
I00
I51
sI01
I1
stp6681
Rp6682
sg25
I2
sg26
F53.0
sbs(g8
Vcontains(bee)
p6683
tp6684
g0
(g14
g2
Ntp6685
Rp6686
(dp6687
g18
F0.5
sg19
I52
sg20
g21
((dp6688
I00
I52
stp6689
Rp6690
sg25
I2
sg26
F53.0
sbs(g9
Vcontains(anoth)
p6691
tp6692
g0
(g14
g2
Ntp6693
Rp6694
(dp6695
g18
F0.5
sg19
I46
sg20
g21
((dp6696
I00
I46
stp6697
Rp6698
sg25
I2
sg26
F47.0
sbs(g9
Vcontains(not_want)
p6699
tp6700
g0
(g14
g2
Ntp6701
Rp6702
(dp6703
g18
F0.5
sg19
I46
sg20
g21
((dp6704
I00
I44
sI01
I2
stp6705
Rp6706
sg25
I2
sg26
F47.0
sbs(g8
Vcontains(someon)
p6707
tp6708
g0
(g14
g2
Ntp6709
Rp6710
(dp6711
g18
F0.5
sg19
I52
sg20
g21
((dp6712
I00
I52
stp6713
Rp6714
sg25
I2
sg26
F53.0
sbs(g9
Vcontains(video)
p6715
tp6716
g0
(g14
g2
Ntp6717
Rp6718
(dp6719
g18
F0.5
sg19
I46
sg20
g21
((dp6720
I00
I45
sI01
I1
stp6721
Rp6722
sg25
I2
sg26
F47.0
sbs(g8
Vcontains(impeach)
p6723
tp6724
g0
(g14
g2
Ntp6725
Rp6726
(dp6727
g18
F0.5
sg19
I52
sg20
g21
((dp6728
I00
I52
stp6729
Rp6730
sg25
I2
sg26
F53.0
sbs(g9
Vcontains(see)
p6731
tp6732
g0
(g14
g2
Ntp6733
Rp6734
(dp6735
g18
F0.5
sg19
I46
sg20
g21
((dp6736
I00
I45
sI01
I1
stp6737
Rp6738
sg25
I2
sg26
F47.0
sbs(g8
Vcontains(say)
p6739
tp6740
g0
(g14
g2
Ntp6741
Rp6742
(dp6743
g18
F0.5
sg19
I52
sg20
g21
((dp6744
I00
I50
sI01
I2
stp6745
Rp6746
sg25
I2
sg26
F53.0
sbs(g8
Vcontains(scam)
p6747
tp6748
g0
(g14
g2
Ntp6749
Rp6750
(dp6751
g18
F0.5
sg19
I52
sg20
g21
((dp6752
I00
I51
sI01
I1
stp6753
Rp6754
sg25
I2
sg26
F53.0
sbs(g9
Vcontains(boo)
p6755
tp6756
g0
(g14
g2
Ntp6757
Rp6758
(dp6759
g18
F0.5
sg19
I46
sg20
g21
((dp6760
I00
I45
sI01
I1
stp6761
Rp6762
sg25
I2
sg26
F47.0
sbs(g8
Vcontains(scriptur)
p6763
tp6764
g0
(g14
g2
Ntp6765
Rp6766
(dp6767
g18
F0.5
sg19
I52
sg20
g21
((dp6768
I00
I52
stp6769
Rp6770
sg25
I2
sg26
F53.0
sbs(g8
Vcontains(expos)
p6771
tp6772
g0
(g14
g2
Ntp6773
Rp6774
(dp6775
g18
F0.5
sg19
I52
sg20
g21
((dp6776
I00
I52
stp6777
Rp6778
sg25
I2
sg26
F53.0
sbs(g8
Vcontains(deserv)
p6779
tp6780
g0
(g14
g2
Ntp6781
Rp6782
(dp6783
g18
F0.5
sg19
I52
sg20
g21
((dp6784
I00
I51
sI01
I1
stp6785
Rp6786
sg25
I2
sg26
F53.0
sbs(g8
Vcontains(philadelphia)
p6787
tp6788
g0
(g14
g2
Ntp6789
Rp6790
(dp6791
g18
F0.5
sg19
I52
sg20
g21
((dp6792
I00
I51
sI01
I1
stp6793
Rp6794
sg25
I2
sg26
F53.0
sbs(g9
Vcontains(scriptur)
p6795
tp6796
g0
(g14
g2
Ntp6797
Rp6798
(dp6799
g18
F0.5
sg19
I46
sg20
g21
((dp6800
I00
I45
sI01
I1
stp6801
Rp6802
sg25
I2
sg26
F47.0
sbs(g8
Vcontains(not_centur)
p6803
tp6804
g0
(g14
g2
Ntp6805
Rp6806
(dp6807
g18
F0.5
sg19
I52
sg20
g21
((dp6808
I00
I51
sI01
I1
stp6809
Rp6810
sg25
I2
sg26
F53.0
sbs(g8
Vcontains(not_merg)
p6811
tp6812
g0
(g14
g2
Ntp6813
Rp6814
(dp6815
g18
F0.5
sg19
I52
sg20
g21
((dp6816
I00
I52
stp6817
Rp6818
sg25
I2
sg26
F53.0
sbs(g8
Vcontains(work)
p6819
tp6820
g0
(g14
g2
Ntp6821
Rp6822
(dp6823
g18
F0.5
sg19
I52
sg20
g21
((dp6824
I00
I51
sI01
I1
stp6825
Rp6826
sg25
I2
sg26
F53.0
sbs(g9
Vcontains(corrupt)
p6827
tp6828
g0
(g14
g2
Ntp6829
Rp6830
(dp6831
g18
F0.5
sg19
I46
sg20
g21
((dp6832
I00
I45
sI01
I1
stp6833
Rp6834
sg25
I2
sg26
F47.0
sbs(g8
Vcontains(trey)
p6835
tp6836
g0
(g14
g2
Ntp6837
Rp6838
(dp6839
g18
F0.5
sg19
I52
sg20
g21
((dp6840
I00
I52
stp6841
Rp6842
sg25
I2
sg26
F53.0
sbs(g9
Vcontains(sinodino)
p6843
tp6844
g0
(g14
g2
Ntp6845
Rp6846
(dp6847
g18
F0.5
sg19
I46
sg20
g21
((dp6848
I00
I45
sI01
I1
stp6849
Rp6850
sg25
I2
sg26
F47.0
sbs(g9
Vcontains(smear)
p6851
tp6852
g0
(g14
g2
Ntp6853
Rp6854
(dp6855
g18
F0.5
sg19
I46
sg20
g21
((dp6856
I00
I45
sI01
I1
stp6857
Rp6858
sg25
I2
sg26
F47.0
sbs(g9
Vcontains(devil)
p6859
tp6860
g0
(g14
g2
Ntp6861
Rp6862
(dp6863
g18
F0.5
sg19
I46
sg20
g21
((dp6864
I00
I45
sI01
I1
stp6865
Rp6866
sg25
I2
sg26
F47.0
sbs(g9
Vcontains(center)
p6867
tp6868
g0
(g14
g2
Ntp6869
Rp6870
(dp6871
g18
F0.5
sg19
I46
sg20
g21
((dp6872
I00
I46
stp6873
Rp6874
sg25
I2
sg26
F47.0
sbs(g9
Vcontains(not_catastroph)
p6875
tp6876
g0
(g14
g2
Ntp6877
Rp6878
(dp6879
g18
F0.5
sg19
I46
sg20
g21
((dp6880
I00
I46
stp6881
Rp6882
sg25
I2
sg26
F47.0
sbs(g8
Vcontains(see)
p6883
tp6884
g0
(g14
g2
Ntp6885
Rp6886
(dp6887
g18
F0.5
sg19
I52
sg20
g21
((dp6888
I00
I50
sI01
I2
stp6889
Rp6890
sg25
I2
sg26
F53.0
sbs(g8
Vcontains(neighbor)
p6891
tp6892
g0
(g14
g2
Ntp6893
Rp6894
(dp6895
g18
F0.5
sg19
I52
sg20
g21
((dp6896
I00
I51
sI01
I1
stp6897
Rp6898
sg25
I2
sg26
F53.0
sbs(g9
Vcontains(hate)
p6899
tp6900
g0
(g14
g2
Ntp6901
Rp6902
(dp6903
g18
F0.5
sg19
I46
sg20
g21
((dp6904
I00
I44
sI01
I2
stp6905
Rp6906
sg25
I2
sg26
F47.0
sbs(g9
Vcontains(congress)
p6907
tp6908
g0
(g14
g2
Ntp6909
Rp6910
(dp6911
g18
F0.5
sg19
I46
sg20
g21
((dp6912
I00
I45
sI01
I1
stp6913
Rp6914
sg25
I2
sg26
F47.0
sbs(g9
Vcontains(case)
p6915
tp6916
g0
(g14
g2
Ntp6917
Rp6918
(dp6919
g18
F0.5
sg19
I46
sg20
g21
((dp6920
I00
I45
sI01
I1
stp6921
Rp6922
sg25
I2
sg26
F47.0
sbs(g9
Vcontains(one)
p6923
tp6924
g0
(g14
g2
Ntp6925
Rp6926
(dp6927
g18
F0.5
sg19
I46
sg20
g21
((dp6928
I00
I46
stp6929
Rp6930
sg25
I2
sg26
F47.0
sbs(g8
Vcontains(strong)
p6931
tp6932
g0
(g14
g2
Ntp6933
Rp6934
(dp6935
g18
F0.5
sg19
I52
sg20
g21
((dp6936
I00
I51
sI01
I1
stp6937
Rp6938
sg25
I2
sg26
F53.0
sbs(g8
Vcontains(not_who)
p6939
tp6940
g0
(g14
g2
Ntp6941
Rp6942
(dp6943
g18
F0.5
sg19
I52
sg20
g21
((dp6944
I00
I51
sI01
I1
stp6945
Rp6946
sg25
I2
sg26
F53.0
sbs(g9
Vcontains(pleas)
p6947
tp6948
g0
(g14
g2
Ntp6949
Rp6950
(dp6951
g18
F0.5
sg19
I46
sg20
g21
((dp6952
I00
I45
sI01
I1
stp6953
Rp6954
sg25
I2
sg26
F47.0
sbs(g8
Vcontains(want)
p6955
tp6956
g0
(g14
g2
Ntp6957
Rp6958
(dp6959
g18
F0.5
sg19
I52
sg20
g21
((dp6960
I00
I50
sI01
I2
stp6961
Rp6962
sg25
I2
sg26
F53.0
sbs(g8
Vcontains(health)
p6963
tp6964
g0
(g14
g2
Ntp6965
Rp6966
(dp6967
g18
F0.5
sg19
I52
sg20
g21
((dp6968
I00
I50
sI01
I2
stp6969
Rp6970
sg25
I2
sg26
F53.0
sbs(g9
Vcontains(bad)
p6971
tp6972
g0
(g14
g2
Ntp6973
Rp6974
(dp6975
g18
F0.5
sg19
I46
sg20
g21
((dp6976
I00
I45
sI01
I1
stp6977
Rp6978
sg25
I2
sg26
F47.0
sbs(g8
Vcontains(govern)
p6979
tp6980
g0
(g14
g2
Ntp6981
Rp6982
(dp6983
g18
F0.5
sg19
I52
sg20
g21
((dp6984
I00
I52
stp6985
Rp6986
sg25
I2
sg26
F53.0
sbs(g9
Vcontains(classifi)
p6987
tp6988
g0
(g14
g2
Ntp6989
Rp6990
(dp6991
g18
F0.5
sg19
I46
sg20
g21
((dp6992
I00
I45
sI01
I1
stp6993
Rp6994
sg25
I2
sg26
F47.0
sbs(g9
Vcontains(want)
p6995
tp6996
g0
(g14
g2
Ntp6997
Rp6998
(dp6999
g18
F0.5
sg19
I46
sg20
g21
((dp7000
I00
I45
sI01
I1
stp7001
Rp7002
sg25
I2
sg26
F47.0
sbs(g9
Vcontains(garbag)
p7003
tp7004
g0
(g14
g2
Ntp7005
Rp7006
(dp7007
g18
F0.5
sg19
I46
sg20
g21
((dp7008
I00
I46
stp7009
Rp7010
sg25
I2
sg26
F47.0
sbs(g8
Vcontains(not_histori)
p7011
tp7012
g0
(g14
g2
Ntp7013
Rp7014
(dp7015
g18
F0.5
sg19
I52
sg20
g21
((dp7016
I00
I52
stp7017
Rp7018
sg25
I2
sg26
F53.0
sbs(g9
Vcontains(page)
p7019
tp7020
g0
(g14
g2
Ntp7021
Rp7022
(dp7023
g18
F0.5
sg19
I46
sg20
g21
((dp7024
I00
I46
stp7025
Rp7026
sg25
I2
sg26
F47.0
sbs(g9
Vcontains(except)
p7027
tp7028
g0
(g14
g2
Ntp7029
Rp7030
(dp7031
g18
F0.5
sg19
I46
sg20
g21
((dp7032
I00
I45
sI01
I1
stp7033
Rp7034
sg25
I2
sg26
F47.0
sbs(g9
Vcontains(accomplish)
p7035
tp7036
g0
(g14
g2
Ntp7037
Rp7038
(dp7039
g18
F0.5
sg19
I46
sg20
g21
((dp7040
I00
I45
sI01
I1
stp7041
Rp7042
sg25
I2
sg26
F47.0
sbs(g9
Vcontains(divid)
p7043
tp7044
g0
(g14
g2
Ntp7045
Rp7046
(dp7047
g18
F0.5
sg19
I46
sg20
g21
((dp7048
I00
I45
sI01
I1
stp7049
Rp7050
sg25
I2
sg26
F47.0
sbs(g8
Vcontains(not_)
p7051
tp7052
g0
(g14
g2
Ntp7053
Rp7054
(dp7055
g18
F0.5
sg19
I52
sg20
g21
((dp7056
I00
I52
stp7057
Rp7058
sg25
I2
sg26
F53.0
sbs(g9
Vcontains(marin)
p7059
tp7060
g0
(g14
g2
Ntp7061
Rp7062
(dp7063
g18
F0.5
sg19
I46
sg20
g21
((dp7064
I00
I45
sI01
I1
stp7065
Rp7066
sg25
I2
sg26
F47.0
sbs(g9
Vcontains(rw)
p7067
tp7068
g0
(g14
g2
Ntp7069
Rp7070
(dp7071
g18
F0.5
sg19
I46
sg20
g21
((dp7072
I00
I45
sI01
I1
stp7073
Rp7074
sg25
I2
sg26
F47.0
sbs(g9
Vcontains(gun)
p7075
tp7076
g0
(g14
g2
Ntp7077
Rp7078
(dp7079
g18
F0.5
sg19
I46
sg20
g21
((dp7080
I00
I45
sI01
I1
stp7081
Rp7082
sg25
I2
sg26
F47.0
sbs(g8
Vcontains(join)
p7083
tp7084
g0
(g14
g2
Ntp7085
Rp7086
(dp7087
g18
F0.5
sg19
I52
sg20
g21
((dp7088
I00
I51
sI01
I1
stp7089
Rp7090
sg25
I2
sg26
F53.0
sbs(g8
Vcontains(portsmouth)
p7091
tp7092
g0
(g14
g2
Ntp7093
Rp7094
(dp7095
g18
F0.5
sg19
I52
sg20
g21
((dp7096
I00
I52
stp7097
Rp7098
sg25
I2
sg26
F53.0
sbs(g9
Vcontains(tire)
p7099
tp7100
g0
(g14
g2
Ntp7101
Rp7102
(dp7103
g18
F0.5
sg19
I46
sg20
g21
((dp7104
I00
I45
sI01
I1
stp7105
Rp7106
sg25
I2
sg26
F47.0
sbs(g9
Vcontains(lie)
p7107
tp7108
g0
(g14
g2
Ntp7109
Rp7110
(dp7111
g18
F0.5
sg19
I46
sg20
g21
((dp7112
I00
I44
sI01
I2
stp7113
Rp7114
sg25
I2
sg26
F47.0
sbs(g8
Vcontains(releas)
p7115
tp7116
g0
(g14
g2
Ntp7117
Rp7118
(dp7119
g18
F0.5
sg19
I52
sg20
g21
((dp7120
I00
I52
stp7121
Rp7122
sg25
I2
sg26
F53.0
sbs(g9
Vcontains(clarifi)
p7123
tp7124
g0
(g14
g2
Ntp7125
Rp7126
(dp7127
g18
F0.5
sg19
I46
sg20
g21
((dp7128
I00
I45
sI01
I1
stp7129
Rp7130
sg25
I2
sg26
F47.0
sbs(g9
Vcontains(pastor)
p7131
tp7132
g0
(g14
g2
Ntp7133
Rp7134
(dp7135
g18
F0.5
sg19
I46
sg20
g21
((dp7136
I00
I46
stp7137
Rp7138
sg25
I2
sg26
F47.0
sbs(g9
Vcontains(legaci)
p7139
tp7140
g0
(g14
g2
Ntp7141
Rp7142
(dp7143
g18
F0.5
sg19
I46
sg20
g21
((dp7144
I00
I46
stp7145
Rp7146
sg25
I2
sg26
F47.0
sbs(g9
Vcontains(brother)
p7147
tp7148
g0
(g14
g2
Ntp7149
Rp7150
(dp7151
g18
F0.5
sg19
I46
sg20
g21
((dp7152
I00
I46
stp7153
Rp7154
sg25
I2
sg26
F47.0
sbs(g8
Vcontains(legaci)
p7155
tp7156
g0
(g14
g2
Ntp7157
Rp7158
(dp7159
g18
F0.5
sg19
I52
sg20
g21
((dp7160
I00
I51
sI01
I1
stp7161
Rp7162
sg25
I2
sg26
F53.0
sbs(g9
Vcontains(along)
p7163
tp7164
g0
(g14
g2
Ntp7165
Rp7166
(dp7167
g18
F0.5
sg19
I46
sg20
g21
((dp7168
I00
I45
sI01
I1
stp7169
Rp7170
sg25
I2
sg26
F47.0
sbs(g9
Vcontains(donat)
p7171
tp7172
g0
(g14
g2
Ntp7173
Rp7174
(dp7175
g18
F0.5
sg19
I46
sg20
g21
((dp7176
I00
I45
sI01
I1
stp7177
Rp7178
sg25
I2
sg26
F47.0
sbs(g8
Vcontains(endors)
p7179
tp7180
g0
(g14
g2
Ntp7181
Rp7182
(dp7183
g18
F0.5
sg19
I52
sg20
g21
((dp7184
I00
I51
sI01
I1
stp7185
Rp7186
sg25
I2
sg26
F53.0
sbs(g8
Vcontains(demonstr)
p7187
tp7188
g0
(g14
g2
Ntp7189
Rp7190
(dp7191
g18
F0.5
sg19
I52
sg20
g21
((dp7192
I00
I52
stp7193
Rp7194
sg25
I2
sg26
F53.0
sbs(g9
Vcontains(tell)
p7195
tp7196
g0
(g14
g2
Ntp7197
Rp7198
(dp7199
g18
F0.5
sg19
I46
sg20
g21
((dp7200
I00
I45
sI01
I1
stp7201
Rp7202
sg25
I2
sg26
F47.0
sbs(g9
Vcontains(must)
p7203
tp7204
g0
(g14
g2
Ntp7205
Rp7206
(dp7207
g18
F0.5
sg19
I46
sg20
g21
((dp7208
I00
I46
stp7209
Rp7210
sg25
I2
sg26
F47.0
sbs(g9
Vcontains(getti)
p7211
tp7212
g0
(g14
g2
Ntp7213
Rp7214
(dp7215
g18
F0.5
sg19
I46
sg20
g21
((dp7216
I00
I46
stp7217
Rp7218
sg25
I2
sg26
F47.0
sbs(g8
Vcontains(screw)
p7219
tp7220
g0
(g14
g2
Ntp7221
Rp7222
(dp7223
g18
F0.5
sg19
I52
sg20
g21
((dp7224
I00
I52
stp7225
Rp7226
sg25
I2
sg26
F53.0
sbs(g9
Vcontains(bag)
p7227
tp7228
g0
(g14
g2
Ntp7229
Rp7230
(dp7231
g18
F0.5
sg19
I46
sg20
g21
((dp7232
I00
I46
stp7233
Rp7234
sg25
I2
sg26
F47.0
sbs(g9
Vcontains(govt)
p7235
tp7236
g0
(g14
g2
Ntp7237
Rp7238
(dp7239
g18
F0.5
sg19
I46
sg20
g21
((dp7240
I00
I44
sI01
I2
stp7241
Rp7242
sg25
I2
sg26
F47.0
sbs(g8
Vcontains(berni)
p7243
tp7244
g0
(g14
g2
Ntp7245
Rp7246
(dp7247
g18
F0.5
sg19
I52
sg20
g21
((dp7248
I00
I49
sI01
I3
stp7249
Rp7250
sg25
I2
sg26
F53.0
sbs(g9
Vcontains(votin)
p7251
tp7252
g0
(g14
g2
Ntp7253
Rp7254
(dp7255
g18
F0.5
sg19
I46
sg20
g21
((dp7256
I00
I46
stp7257
Rp7258
sg25
I2
sg26
F47.0
sbs(g9
Vcontains(expos)
p7259
tp7260
g0
(g14
g2
Ntp7261
Rp7262
(dp7263
g18
F0.5
sg19
I46
sg20
g21
((dp7264
I00
I44
sI01
I2
stp7265
Rp7266
sg25
I2
sg26
F47.0
sbs(g8
Vcontains(point)
p7267
tp7268
g0
(g14
g2
Ntp7269
Rp7270
(dp7271
g18
F0.5
sg19
I52
sg20
g21
((dp7272
I00
I52
stp7273
Rp7274
sg25
I2
sg26
F53.0
sbs(g8
Vcontains(retweet)
p7275
tp7276
g0
(g14
g2
Ntp7277
Rp7278
(dp7279
g18
F0.5
sg19
I52
sg20
g21
((dp7280
I00
I52
stp7281
Rp7282
sg25
I2
sg26
F53.0
sbs(g8
Vcontains(live)
p7283
tp7284
g0
(g14
g2
Ntp7285
Rp7286
(dp7287
g18
F0.5
sg19
I52
sg20
g21
((dp7288
I00
I51
sI01
I1
stp7289
Rp7290
sg25
I2
sg26
F53.0
sbs(g9
Vcontains(new)
p7291
tp7292
g0
(g14
g2
Ntp7293
Rp7294
(dp7295
g18
F0.5
sg19
I46
sg20
g21
((dp7296
I00
I45
sI01
I1
stp7297
Rp7298
sg25
I2
sg26
F47.0
sbs(g9
Vcontains(wh)
p7299
tp7300
g0
(g14
g2
Ntp7301
Rp7302
(dp7303
g18
F0.5
sg19
I46
sg20
g21
((dp7304
I00
I45
sI01
I1
stp7305
Rp7306
sg25
I2
sg26
F47.0
sbs(g9
Vcontains(speech)
p7307
tp7308
g0
(g14
g2
Ntp7309
Rp7310
(dp7311
g18
F0.5
sg19
I46
sg20
g21
((dp7312
I00
I46
stp7313
Rp7314
sg25
I2
sg26
F47.0
sbs(g8
Vcontains(classifi)
p7315
tp7316
g0
(g14
g2
Ntp7317
Rp7318
(dp7319
g18
F0.5
sg19
I52
sg20
g21
((dp7320
I00
I52
stp7321
Rp7322
sg25
I2
sg26
F53.0
sbs(g9
Vcontains(subtweet)
p7323
tp7324
g0
(g14
g2
Ntp7325
Rp7326
(dp7327
g18
F0.5
sg19
I46
sg20
g21
((dp7328
I00
I43
sI01
I3
stp7329
Rp7330
sg25
I2
sg26
F47.0
sbs(g9
Vcontains(put)
p7331
tp7332
g0
(g14
g2
Ntp7333
Rp7334
(dp7335
g18
F0.5
sg19
I46
sg20
g21
((dp7336
I00
I45
sI01
I1
stp7337
Rp7338
sg25
I2
sg26
F47.0
sbs(g8
Vcontains(confirm)
p7339
tp7340
g0
(g14
g2
Ntp7341
Rp7342
(dp7343
g18
F0.5
sg19
I52
sg20
g21
((dp7344
I00
I52
stp7345
Rp7346
sg25
I2
sg26
F53.0
sbs(g9
Vcontains(progress)
p7347
tp7348
g0
(g14
g2
Ntp7349
Rp7350
(dp7351
g18
F0.5
sg19
I46
sg20
g21
((dp7352
I00
I46
stp7353
Rp7354
sg25
I2
sg26
F47.0
sbs(g9
Vcontains(tank)
p7355
tp7356
g0
(g14
g2
Ntp7357
Rp7358
(dp7359
g18
F0.5
sg19
I46
sg20
g21
((dp7360
I00
I46
stp7361
Rp7362
sg25
I2
sg26
F47.0
sbs(g9
Vcontains(isra)
p7363
tp7364
g0
(g14
g2
Ntp7365
Rp7366
(dp7367
g18
F0.5
sg19
I46
sg20
g21
((dp7368
I00
I45
sI01
I1
stp7369
Rp7370
sg25
I2
sg26
F47.0
sbs(g8
Vcontains(not_amend)
p7371
tp7372
g0
(g14
g2
Ntp7373
Rp7374
(dp7375
g18
F0.5
sg19
I52
sg20
g21
((dp7376
I00
I51
sI01
I1
stp7377
Rp7378
sg25
I2
sg26
F53.0
sbs(g8
Vcontains(vicious)
p7379
tp7380
g0
(g14
g2
Ntp7381
Rp7382
(dp7383
g18
F0.5
sg19
I52
sg20
g21
((dp7384
I00
I51
sI01
I1
stp7385
Rp7386
sg25
I2
sg26
F53.0
sbs(g8
Vcontains(well)
p7387
tp7388
g0
(g14
g2
Ntp7389
Rp7390
(dp7391
g18
F0.5
sg19
I52
sg20
g21
((dp7392
I00
I52
stp7393
Rp7394
sg25
I2
sg26
F53.0
sbs(g9
Vcontains(base)
p7395
tp7396
g0
(g14
g2
Ntp7397
Rp7398
(dp7399
g18
F0.5
sg19
I46
sg20
g21
((dp7400
I00
I46
stp7401
Rp7402
sg25
I2
sg26
F47.0
sbs(g9
Vcontains(militar)
p7403
tp7404
g0
(g14
g2
Ntp7405
Rp7406
(dp7407
g18
F0.5
sg19
I46
sg20
g21
((dp7408
I00
I45
sI01
I1
stp7409
Rp7410
sg25
I2
sg26
F47.0
sbs(g9
Vcontains(took)
p7411
tp7412
g0
(g14
g2
Ntp7413
Rp7414
(dp7415
g18
F0.5
sg19
I46
sg20
g21
((dp7416
I00
I45
sI01
I1
stp7417
Rp7418
sg25
I2
sg26
F47.0
sbs(g9
Vcontains(juri)
p7419
tp7420
g0
(g14
g2
Ntp7421
Rp7422
(dp7423
g18
F0.5
sg19
I46
sg20
g21
((dp7424
I00
I45
sI01
I1
stp7425
Rp7426
sg25
I2
sg26
F47.0
sbs(g8
Vcontains(clarifi)
p7427
tp7428
g0
(g14
g2
Ntp7429
Rp7430
(dp7431
g18
F0.5
sg19
I52
sg20
g21
((dp7432
I00
I52
stp7433
Rp7434
sg25
I2
sg26
F53.0
sbs(g9
Vcontains(obama)
p7435
tp7436
g0
(g14
g2
Ntp7437
Rp7438
(dp7439
g18
F0.5
sg19
I46
sg20
g21
((dp7440
I00
I45
sI01
I1
stp7441
Rp7442
sg25
I2
sg26
F47.0
sbs(g8
Vcontains(soro)
p7443
tp7444
g0
(g14
g2
Ntp7445
Rp7446
(dp7447
g18
F0.5
sg19
I52
sg20
g21
((dp7448
I00
I51
sI01
I1
stp7449
Rp7450
sg25
I2
sg26
F53.0
sbs(g9
Vcontains(like)
p7451
tp7452
g0
(g14
g2
Ntp7453
Rp7454
(dp7455
g18
F0.5
sg19
I46
sg20
g21
((dp7456
I00
I43
sI01
I3
stp7457
Rp7458
sg25
I2
sg26
F47.0
sbs(g9
Vcontains(brand)
p7459
tp7460
g0
(g14
g2
Ntp7461
Rp7462
(dp7463
g18
F0.5
sg19
I46
sg20
g21
((dp7464
I00
I45
sI01
I1
stp7465
Rp7466
sg25
I2
sg26
F47.0
sbs(g8
Vcontains(congrat)
p7467
tp7468
g0
(g14
g2
Ntp7469
Rp7470
(dp7471
g18
F0.5
sg19
I52
sg20
g21
((dp7472
I00
I51
sI01
I1
stp7473
Rp7474
sg25
I2
sg26
F53.0
sbs(g9
Vcontains()
p7475
tp7476
g0
(g14
g2
Ntp7477
Rp7478
(dp7479
g18
F0.5
sg19
I46
sg20
g21
((dp7480
I00
I44
sI01
I2
stp7481
Rp7482
sg25
I2
sg26
F47.0
sbs(g8
Vcontains(defeat)
p7483
tp7484
g0
(g14
g2
Ntp7485
Rp7486
(dp7487
g18
F0.5
sg19
I52
sg20
g21
((dp7488
I00
I52
stp7489
Rp7490
sg25
I2
sg26
F53.0
sbs(g9
Vcontains(flaw)
p7491
tp7492
g0
(g14
g2
Ntp7493
Rp7494
(dp7495
g18
F0.5
sg19
I46
sg20
g21
((dp7496
I00
I44
sI01
I2
stp7497
Rp7498
sg25
I2
sg26
F47.0
sbs(g9
Vcontains(money)
p7499
tp7500
g0
(g14
g2
Ntp7501
Rp7502
(dp7503
g18
F0.5
sg19
I46
sg20
g21
((dp7504
I00
I45
sI01
I1
stp7505
Rp7506
sg25
I2
sg26
F47.0
sbs(g9
Vcontains(kenya)
p7507
tp7508
g0
(g14
g2
Ntp7509
Rp7510
(dp7511
g18
F0.5
sg19
I46
sg20
g21
((dp7512
I00
I46
stp7513
Rp7514
sg25
I2
sg26
F47.0
sbs(g8
Vcontains(full)
p7515
tp7516
g0
(g14
g2
Ntp7517
Rp7518
(dp7519
g18
F0.5
sg19
I52
sg20
g21
((dp7520
I00
I51
sI01
I1
stp7521
Rp7522
sg25
I2
sg26
F53.0
sbs(g8
Vcontains(suppos)
p7523
tp7524
g0
(g14
g2
Ntp7525
Rp7526
(dp7527
g18
F0.5
sg19
I52
sg20
g21
((dp7528
I00
I52
stp7529
Rp7530
sg25
I2
sg26
F53.0
sbs(g9
Vcontains(not_god)
p7531
tp7532
g0
(g14
g2
Ntp7533
Rp7534
(dp7535
g18
F0.5
sg19
I46
sg20
g21
((dp7536
I00
I46
stp7537
Rp7538
sg25
I2
sg26
F47.0
sbs(g9
Vcontains(major)
p7539
tp7540
g0
(g14
g2
Ntp7541
Rp7542
(dp7543
g18
F0.5
sg19
I46
sg20
g21
((dp7544
I00
I46
stp7545
Rp7546
sg25
I2
sg26
F47.0
sbs(g9
Vcontains(point)
p7547
tp7548
g0
(g14
g2
Ntp7549
Rp7550
(dp7551
g18
F0.5
sg19
I46
sg20
g21
((dp7552
I00
I45
sI01
I1
stp7553
Rp7554
sg25
I2
sg26
F47.0
sbs(g8
Vcontains(back)
p7555
tp7556
g0
(g14
g2
Ntp7557
Rp7558
(dp7559
g18
F0.5
sg19
I52
sg20
g21
((dp7560
I00
I51
sI01
I1
stp7561
Rp7562
sg25
I2
sg26
F53.0
sbs(g9
Vcontains(kill)
p7563
tp7564
g0
(g14
g2
Ntp7565
Rp7566
(dp7567
g18
F0.5
sg19
I46
sg20
g21
((dp7568
I00
I46
stp7569
Rp7570
sg25
I2
sg26
F47.0
sbs(g9
Vcontains(husband)
p7571
tp7572
g0
(g14
g2
Ntp7573
Rp7574
(dp7575
g18
F0.5
sg19
I46
sg20
g21
((dp7576
I00
I45
sI01
I1
stp7577
Rp7578
sg25
I2
sg26
F47.0
sbs(g8
Vcontains(kept)
p7579
tp7580
g0
(g14
g2
Ntp7581
Rp7582
(dp7583
g18
F0.5
sg19
I52
sg20
g21
((dp7584
I00
I52
stp7585
Rp7586
sg25
I2
sg26
F53.0
sbs(g9
Vcontains(ur)
p7587
tp7588
g0
(g14
g2
Ntp7589
Rp7590
(dp7591
g18
F0.5
sg19
I46
sg20
g21
((dp7592
I00
I44
sI01
I2
stp7593
Rp7594
sg25
I2
sg26
F47.0
sbs(g8
Vcontains(worth)
p7595
tp7596
g0
(g14
g2
Ntp7597
Rp7598
(dp7599
g18
F0.5
sg19
I52
sg20
g21
((dp7600
I00
I52
stp7601
Rp7602
sg25
I2
sg26
F53.0
sbs(g9
Vcontains(law)
p7603
tp7604
g0
(g14
g2
Ntp7605
Rp7606
(dp7607
g18
F0.5
sg19
I46
sg20
g21
((dp7608
I00
I46
stp7609
Rp7610
sg25
I2
sg26
F47.0
sbs(g8
Vcontains(brother)
p7611
tp7612
g0
(g14
g2
Ntp7613
Rp7614
(dp7615
g18
F0.5
sg19
I52
sg20
g21
((dp7616
I00
I51
sI01
I1
stp7617
Rp7618
sg25
I2
sg26
F53.0
sbs(g9
Vcontains(not_priv)
p7619
tp7620
g0
(g14
g2
Ntp7621
Rp7622
(dp7623
g18
F0.5
sg19
I46
sg20
g21
((dp7624
I00
I45
sI01
I1
stp7625
Rp7626
sg25
I2
sg26
F47.0
sbs(g8
Vcontains(predict)
p7627
tp7628
g0
(g14
g2
Ntp7629
Rp7630
(dp7631
g18
F0.5
sg19
I52
sg20
g21
((dp7632
I00
I52
stp7633
Rp7634
sg25
I2
sg26
F53.0
sbs(g9
Vcontains(rep)
p7635
tp7636
g0
(g14
g2
Ntp7637
Rp7638
(dp7639
g18
F0.5
sg19
I46
sg20
g21
((dp7640
I00
I46
stp7641
Rp7642
sg25
I2
sg26
F47.0
sbs(g9
Vcontains(rapist)
p7643
tp7644
g0
(g14
g2
Ntp7645
Rp7646
(dp7647
g18
F0.5
sg19
I46
sg20
g21
((dp7648
I00
I45
sI01
I1
stp7649
Rp7650
sg25
I2
sg26
F47.0
sbs(g8
Vcontains(guy)
p7651
tp7652
g0
(g14
g2
Ntp7653
Rp7654
(dp7655
g18
F0.5
sg19
I52
sg20
g21
((dp7656
I00
I52
stp7657
Rp7658
sg25
I2
sg26
F53.0
sbs(g8
Vcontains(sexism)
p7659
tp7660
g0
(g14
g2
Ntp7661
Rp7662
(dp7663
g18
F0.5
sg19
I52
sg20
g21
((dp7664
I00
I52
stp7665
Rp7666
sg25
I2
sg26
F53.0
sbs(g9
Vcontains(distract)
p7667
tp7668
g0
(g14
g2
Ntp7669
Rp7670
(dp7671
g18
F0.5
sg19
I46
sg20
g21
((dp7672
I00
I46
stp7673
Rp7674
sg25
I2
sg26
F47.0
sbs(g9
Vcontains(count)
p7675
tp7676
g0
(g14
g2
Ntp7677
Rp7678
(dp7679
g18
F0.5
sg19
I46
sg20
g21
((dp7680
I00
I45
sI01
I1
stp7681
Rp7682
sg25
I2
sg26
F47.0
sbs(g9
Vcontains(jail)
p7683
tp7684
g0
(g14
g2
Ntp7685
Rp7686
(dp7687
g18
F0.5
sg19
I46
sg20
g21
((dp7688
I00
I46
stp7689
Rp7690
sg25
I2
sg26
F47.0
sbs(g9
Vcontains(monster)
p7691
tp7692
g0
(g14
g2
Ntp7693
Rp7694
(dp7695
g18
F0.5
sg19
I46
sg20
g21
((dp7696
I00
I46
stp7697
Rp7698
sg25
I2
sg26
F47.0
sbs(g9
Vcontains(untrustworthi)
p7699
tp7700
g0
(g14
g2
Ntp7701
Rp7702
(dp7703
g18
F0.5
sg19
I46
sg20
g21
((dp7704
I00
I46
stp7705
Rp7706
sg25
I2
sg26
F47.0
sbs(g9
Vcontains(victim)
p7707
tp7708
g0
(g14
g2
Ntp7709
Rp7710
(dp7711
g18
F0.5
sg19
I46
sg20
g21
((dp7712
I00
I46
stp7713
Rp7714
sg25
I2
sg26
F47.0
sbs(g9
Vcontains(wont)
p7715
tp7716
g0
(g14
g2
Ntp7717
Rp7718
(dp7719
g18
F0.5
sg19
I46
sg20
g21
((dp7720
I00
I45
sI01
I1
stp7721
Rp7722
sg25
I2
sg26
F47.0
sbs(g8
Vcontains(not_clinton)
p7723
tp7724
g0
(g14
g2
Ntp7725
Rp7726
(dp7727
g18
F0.5
sg19
I52
sg20
g21
((dp7728
I00
I51
sI01
I1
stp7729
Rp7730
sg25
I2
sg26
F53.0
sbs(g8
Vcontains(phrase)
p7731
tp7732
g0
(g14
g2
Ntp7733
Rp7734
(dp7735
g18
F0.5
sg19
I52
sg20
g21
((dp7736
I00
I51
sI01
I1
stp7737
Rp7738
sg25
I2
sg26
F53.0
sbs(g8
Vcontains(state)
p7739
tp7740
g0
(g14
g2
Ntp7741
Rp7742
(dp7743
g18
F0.5
sg19
I52
sg20
g21
((dp7744
I00
I51
sI01
I1
stp7745
Rp7746
sg25
I2
sg26
F53.0
sbs(g8
Vcontains(ppl)
p7747
tp7748
g0
(g14
g2
Ntp7749
Rp7750
(dp7751
g18
F0.5
sg19
I52
sg20
g21
((dp7752
I00
I52
stp7753
Rp7754
sg25
I2
sg26
F53.0
sbs(g8
Vcontains(liber)
p7755
tp7756
g0
(g14
g2
Ntp7757
Rp7758
(dp7759
g18
F0.5
sg19
I52
sg20
g21
((dp7760
I00
I50
sI01
I2
stp7761
Rp7762
sg25
I2
sg26
F53.0
sbs(g8
Vcontains(mere)
p7763
tp7764
g0
(g14
g2
Ntp7765
Rp7766
(dp7767
g18
F0.5
sg19
I52
sg20
g21
((dp7768
I00
I51
sI01
I1
stp7769
Rp7770
sg25
I2
sg26
F53.0
sbs(g8
Vcontains(nevertrump)
p7771
tp7772
g0
(g14
g2
Ntp7773
Rp7774
(dp7775
g18
F0.5
sg19
I52
sg20
g21
((dp7776
I00
I52
stp7777
Rp7778
sg25
I2
sg26
F53.0
sbs(g8
Vcontains(handgun)
p7779
tp7780
g0
(g14
g2
Ntp7781
Rp7782
(dp7783
g18
F0.5
sg19
I52
sg20
g21
((dp7784
I00
I52
stp7785
Rp7786
sg25
I2
sg26
F53.0
sbs(g8
Vcontains(opposit)
p7787
tp7788
g0
(g14
g2
Ntp7789
Rp7790
(dp7791
g18
F0.5
sg19
I52
sg20
g21
((dp7792
I00
I52
stp7793
Rp7794
sg25
I2
sg26
F53.0
sbssS'_label_probdist'
p7795
g0
(g14
g2
Ntp7796
Rp7797
(dp7798
g18
F0.5
sg19
I98
sg20
g21
((dp7799
g8
I52
sg9
I46
stp7800
Rp7801
sg25
I2
sg26
F99.0
sbsb.