(lp0
V
p1
aVnot_justic
p2
aVliar
p3
aVbull
p4
aVnot_gaza
p5
aVsignific
p6
aVgo
p7
aVhate
p8
aVchildren
p9
aVvoter
p10
aVyoung
p11
aViraqi
p12
aVbuddi
p13
aVnot_histor
p14
aVfatal
p15
aVworth
p16
aVsent
p17
aVbrown
p18
aVgovern
p19
aVexact
p20
aVtri
p21
aVadministr
p22
aVmichael
p23
aVbrother
p24
aVmonsanto
p25
aVq
p26
aVcooki
p27
aVguy
p28
aVyall
p29
aVpleas
p30
aVprevent
p31
aVnot_class
p32
aVbravo
p33
aVted
p34
aVcrook
p35
aVnarrat
p36
aVstreet
p37
aVvideo
p38
aVrapist
p39
aVappear
p40
aVnot_men
p41
aVnot_email
p42
aVboost
p43
aVpublic
p44
aVtold
p45
aVfull
p46
aVhero
p47
aVmuslim
p48
aVhere
p49
aVentertain
p50
aVjuri
p51
aVaddress
p52
aValong
p53
aViraq
p54
aVvalu
p55
aVmilitar
p56
aVbox
p57
aVboo
p58
aVchang
p59
aVtheori
p60
aVvia
p61
aVlove
p62
aVcampaign
p63
aVdanger
p64
aVwin
p65
aVfoundat
p66
aVput
p67
aVsterl
p68
aVfamili
p69
aVfbi
p70
aVnot_hillari
p71
aVaggress
p72
aVuse
p73
aVpalestinian
p74
aVliber
p75
aVhudson
p76
aVlive
p77
aVcall
p78
aVhttps
p79
aVblack
p80
aVtell
p81
aVflaw
p82
aVpeopl
p83
aVsubtweet
p84
aVreign
p85
aVchariti
p86
aVnot_sens
p87
aVsoro
p88
aVeffort
p89
aVmust
p90
aVshoot
p91
aVjoin
p92
aVroom
p93
aVhour
p94
aVwork
p95
aVjudg
p96
aVdem
p97
aVpurpos
p98
aVgowdi
p99
aVscam
p100
aVgive
p101
aVpredict
p102
aVmethodist
p103
aVdeath
p104
aVnot_histori
p105
aVwant
p106
aVrig
p107
aVnot_want
p108
aVphrase
p109
aVcrimin
p110
aVoccup
p111
aVend
p112
aVquot
p113
aVpolic
p114
aVanoth
p115
aVamerican
p116
aVclassifi
p117
aVgeorg
p118
aVnot_mak
p119
aVreject
p120
aVsin
p121
aVvicious
p122
aVlab
p123
aVbreitbart
p124
aVblood
p125
aVmen
p126
aVcourt
p127
aVlaw
p128
aVdemonstr
p129
aVdivid
p130
aVoffens
p131
aVissu
p132
aVpreced
p133
aVjail
p134
aVafrican
p135
aVnot_amend
p136
aVtalk
p137
aVmove
p138
aVbcuz
p139
aVsuffer
p140
aVthank
p141
aVpray
p142
aVfix
p143
aVli
p144
aVlyin
p145
aVhypocrisi
p146
aVmail
p147
aVcridlin
p148
aVnon
p149
aVgood
p150
aVbreak
p151
aVbigger
p152
aVwont
p153
aVanyth
p154
aVdrop
p155
aVcareless
p156
aVtruth
p157
aVnot_catastroph
p158
aVside
p159
aVmental
p160
aVlist
p161
aVidea
p162
aVdemocrat
p163
aVvote
p164
aVexpect
p165
aVyear
p166
aVhappen
p167
aVrt
p168
aVnot_hear
p169
aVaccomplish
p170
aVsuprem
p171
aVnewli
p172
aVyour
p173
aVnot_american
p174
aVlaid
p175
aVstupid
p176
aVhealth
p177
aVdefens
p178
aVclarifi
p179
aVmonster
p180
aVnot_whov
p181
aVmillion
p182
aVargu
p183
aVfree
p184
aVsomeon
p185
aVbase
p186
aVbeliev
p187
aVreleas
p188
aVnot_kid
p189
aVcard
p190
aVcare
p191
aVcould
p192
aVask
p193
aVtoscrew
p194
aVkeep
p195
aVisi
p196
aVw
p197
aVpresid
p198
aVsubtl
p199
aVthink
p200
aVfeed
p201
aVendors
p202
aVmajor
p203
aVcarri
p204
aVone
p205
aValreadi
p206
aVsubmit
p207
aVnot_gain
p208
aVoppos
p209
aVdiffer
p210
aVtop
p211
aVjeb
p212
aVscrew
p213
aVwhite
p214
aVscheme
p215
aVhillari
p216
aVoption
p217
aVtook
p218
aVpart
p219
aVnot_publ
p220
aVobama
p221
aVprovid
p222
aVbee
p223
aVtrey
p224
aVmatter
p225
aVwiesel
p226
aVwere
p227
aVtoward
p228
aVoath
p229
aVbet
p230
aVportsmouth
p231
aVnot_dem
p232
aVnot_dec
p233
aVnot_
p234
aVsay
p235
aVslam
p236
aVdeliv
p237
aVseek
p238
aVlie
p239
aVarm
p240
aVnot_servic
p241
aVberni
p242
aVsinodino
p243
aVdestroy
p244
aVphiladelphia
p245
aValton
p246
aVmarin
p247
aVplan
p248
aVcoin
p249
aVcharg
p250
aVshalt
p251
aVdoj
p252
aVdoubl
p253
aVnot_support
p254
aVcorrin
p255
aVfact
p256
aVopposit
p257
aVnot_domin
p258
aVsexism
p259
aVeconomist
p260
aVinvolv
p261
aVabsolut
p262
aVisra
p263
aVtire
p264
aVsugar
p265
aVsuppos
p266
aVmoney
p267
aVnot_li
p268
aVhope
p269
aVunbeli
p270
aVget
p271
aVmade
p272
aVnew
p273
aVnot_truth
p274
aVhandgun
p275
aVinjustic
p276
aVh
p277
aVbag
p278
aVbad
p279
aVerupt
p280
aVcongresswoman
p281
aVhusband
p282
aVlegaci
p283
aVhuman
p284
aVoverwhelm
p285
aVdillard
p286
aVsee
p287
aVus
p288
aVcorrupt
p289
aVprogress
p290
aVnot_cas
p291
aVretweet
p292
aVnot_charg
p293
aVwire
p294
aVreform
p295
aVnot_us
p296
aVwow
p297
aVuntrustworthi
p298
aVstate
p299
aVimport
p300
aVemail
p301
aVdalla
p302
aVwh
p303
aVblame
p304
aVcycl
p305
aVnot_comey
p306
aVentir
p307
aVnot_clinton
p308
aVnews
p309
aVcome
p310
aVnot_afford
p311
aVnot_eld
p312
aVcop
p313
aVcos
p314
aVcareer
p315
aVill
p316
aVcolumnist
p317
aVcomey
p318
aVlet
p319
aVpoint
p320
aVwall
p321
aVexcept
p322
aVars
p323
aVindict
p324
aVcolon
p325
aVtrust
p326
aVcoloni
p327
aVcommuniti
p328
aVbetter
p329
aVdevil
p330
aVthree
p331
aVfrack
p332
aVwhos
p333
aVgaza
p334
aVcurtain
p335
aVpm
p336
aVlife
p337
aVfire
p338
aVfund
p339
aVwake
p340
aVtogeth
p341
aVchild
p342
aVvotin
p343
aVcase
p344
aVtank
p345
aVrat
p346
aVair
p347
aVthou
p348
aVscriptur
p349
aVeveryon
p350
aVpack
p351
aVreadi
p352
aVbros
p353
aVvot
p354
aVkenya
p355
aVparti
p356
aVmake
p357
aVmember
p358
aVcongrat
p359
aVspeech
p360
aVgrand
p361
aVcomplet
p362
aVnot_part
p363
aVprais
p364
aVimagin
p365
aVdefeat
p366
aVeffect
p367
aVhand
p368
aVkoch
p369
aVkept
p370
aVcenter
p371
aVwell
p372
aVthought
p373
aVnot_parti
p374
aVviolenc
p375
aVless
p376
aVnot_merg
p377
aVgun
p378
aVkill
p379
aVnot_who
p380
aVvictim
p381
aVelect
p382
aVeli
p383
aVexpos
p384
aValso
p385
aVcuz
p386
aVbarack
p387
aVarrest
p388
aVsave
p389
aVread
p390
aVdonat
p391
aVgonna
p392
aVregim
p393
aVknow
p394
aVgovt
p395
aVnot_rich
p396
aVlike
p397
aVnot_abt
p398
aVpage
p399
aVattorney
p400
aVacknowledg
p401
aVtwitter
p402
aVback
p403
aVimpeach
p404
aVhondura
p405
aVracial
p406
aVpoll
p407
aVconfirm
p408
aVnot_god
p409
aVnot_centur
p410
aVbe
p411
aVrun
p412
aVpower
p413
aVgarbag
p414
aVrud
p415
aVpromot
p416
aVcentral
p417
aVoh
p418
aVsmear
p419
aVcontamin
p420
aVnot_humanitarian
p421
aVstand
p422
aVneighbor
p423
aVtheyr
p424
aVnot_indiffer
p425
aVclinton
p426
aVdepart
p427
aVowe
p428
aVnot_mob
p429
aVppl
p430
aVmere
p431
aVsander
p432
aVamerica
p433
aVnot_sh
p434
aVnot_se
p435
aVsupport
p436
aVthere
p437
aVnot_distract
p438
aVnot_woman
p439
aVlol
p440
aVnot_hateit
p441
aVstrong
p442
aVreplac
p443
aVbiggest
p444
aVnot_tank
p445
aVnot_whit
p446
aVgetti
p447
aVforc
p448
aVhs
p449
aVbrand
p450
aVhq
p451
aVpastor
p452
aVnot_real
p453
aVrealli
p454
aVtrue
p455
aVcount
p456
aVpull
p457
aVfraud
p458
aVnot_priv
p459
aVdaddi
p460
aVdistract
p461
aVur
p462
aVproblem
p463
aVgone
p464
aVcreat
p465
aVfellow
p466
aVap
p467
aVchap
p468
aVpit
p469
aVcheck
p470
aVtitl
p471
aVreckless
p472
aVnot_refuge
p473
aVcongress
p474
aVstay
p475
aVnot_blam
p476
aVrw
p477
aVstoke
p478
aVnot_obstruct
p479
aVdeserv
p480
aVappoint
p481
aVfemal
p482
aVnevertrump
p483
aVu
p484
aVtime
p485
aVrep
p486
a.