(lp0
Vlol.and
p1
aVhillaryforprison
p2
aVhatr
p3
aVnot_increas
p4
aVyellow
p5
aVwisconsinprimari
p6
aVfour
p7
aVprotest
p8
aVjihad
p9
aVislamist
p10
aVclimb
p11
aVnot_believ
p12
aVhate
p13
aVprofil
p14
aVaccus
p15
aVvoter
p16
aVnot_thesystemisrig
p17
aVnot_reagan
p18
aVtweet
p19
aVcrush
p20
aVwhack
p21
aVnot_unbeliev
p22
aVswat
p23
aVedward
p24
aVbuddi
p25
aVnot_histor
p26
aVlord
p27
aVhedg
p28
aVpride
p29
aVworth
p30
aVeveri
p31
aVrisk
p32
aVunpopular
p33
aVcompassion
p34
aVfreebi
p35
aVrise
p36
aVstabber
p37
aVvoic
p38
aVtenni
p39
aVuncl
p40
aVdelt
p41
aVtaj
p42
aVgovern
p43
aVnot_exampl
p44
aVmonth
p45
aVnot_her
p46
aVvast
p47
aVschool
p48
aVscholar
p49
aVneverhillari
p50
aVref
p51
aVsupportr
p52
aVsolid
p53
aVmonsanto
p54
aVnot_clev
p55
aVtragedi
p56
aVel
p57
aVnot_remors
p58
aVnot_back
p59
aVnot_iron
p60
aVsocialist
p61
aVenjoy
p62
aVclarifi
p63
aVrequest
p64
aVteamgov
p65
aVhistor
p66
aVconsequ
p67
aVsecond
p68
aVstreet
p69
aVsummer
p70
aVn
p71
aVpander
p72
aVaim
p73
aVbattleground
p74
aVhide
p75
aVchrist
p76
aVbiolog
p77
aVail
p78
aVworsen
p79
aVthunder
p80
aVpanama
p81
aVasid
p82
aVnot_soon
p83
aVmigrat
p84
aVjuxtapos
p85
aVnew
p86
aVnot_sheep
p87
aVever
p88
aVliberti
p89
aVtold
p90
aVmed
p91
aVafterward
p92
aVhero
p93
aVsocietyhttp
p94
aVvoteblu
p95
aVwhose
p96
aVdeadbeat
p97
aVmen
p98
aVsanford
p99
aVhere
p100
aVwomenfortrump
p101
aVlgbt
p102
aVaccur
p103
aVlatinandproud
p104
aVcult
p105
aVnot_crook
p106
aVmex
p107
aVnot_priebus
p108
aVheadlin
p109
aVdaughter
p110
aVmilitari
p111
aVk
p112
aVsjw
p113
aVcrock
p114
aVjame
p115
aVharass
p116
aVnot_victim
p117
aVmentor
p118
aVsmoke
p119
aVspin
p120
aVcalifornia
p121
aVaka
p122
aVsorri
p123
aVcontroversi
p124
aVtremend
p125
aVwhatnow
p126
aVlatinoinus
p127
aVvolunt
p128
aVcampaign
p129
aVourcolorado
p130
aVnewspap
p131
aVreagan
p132
aVcflame
p133
aVdirtydonald
p134
aVattitud
p135
aVblockad
p136
aVmoral
p137
aVsterl
p138
aVnot_ind
p139
aVstern
p140
aVtotal
p141
aVrifl
p142
aVunit
p143
aVmooch
p144
aVnot_hillari
p145
aVplot
p146
aVdescrib
p147
aVwould
p148
aVpalestinian
p149
aVenviabl
p150
aVnot_potius
p151
aVploy
p152
aVinsult
p153
aVcall
p154
aVnevillelouann
p155
aVh
p156
aVstrike
p157
aVlwc
p158
aVnate
p159
aVtype
p160
aVtell
p161
aVnot_mean
p162
aVpaperwork
p163
aVnot_republican
p164
aVoscar
p165
aVinflect
p166
aVrelat
p167
aVhaha
p168
aVreign
p169
aVhurt
p170
aVwarn
p171
aVphone
p172
aVnot_jewish
p173
aVmusic
p174
aVnot_might
p175
aVnot_sens
p176
aVnot_riot
p177
aVhillarym
p178
aVhold
p179
aVberner
p180
aVphoni
p181
aVmust
p182
aVshoot
p183
aVword
p184
aVroom
p185
aVmc
p186
aVshame
p187
aVnot_end
p188
aVwork
p189
aVmi
p190
aVnot_leak
p191
aVmt
p192
aVwors
p193
aVera
p194
aVmr
p195
aVrebldg
p196
aVroot
p197
aVil
p198
aVele
p199
aVblight
p200
aVdtyou
p201
aVclimat
p202
aVgive
p203
aVflorida
p204
aVindia
p205
aVnot_terrorist
p206
aVheartless
p207
aVepiscop
p208
aVliter
p209
aVwalsh
p210
aVwant
p211
aVlov
p212
aVnot_nigeria
p213
aVbroaddrick
p214
aVattract
p215
aVnot_buckwheat
p216
aVnot_understand
p217
aVillinoi
p218
aVend
p219
aVturn
p220
aVpolic
p221
aVclassifi
p222
aVid
p223
aVtheyd
p224
aVfar
p225
aVhot
p226
aVmarcell
p227
aVbiggot
p228
aVinterview
p229
aVdisappoint
p230
aVperspect
p231
aVpolit
p232
aVpoker
p233
aVbesid
p234
aVelizabeth
p235
aVnot_hero
p236
aVmess
p237
aVbillari
p238
aVchines
p239
aVnot_inform
p240
aVvicious
p241
aVlab
p242
aVdell
p243
aVwrong
p244
aVsedg
p245
aVroaster
p246
aVindefens
p247
aVbeauti
p248
aVnot_minor
p249
aVlaw
p250
aVlesbian
p251
aVdemonstr
p252
aVlas
p253
aVgovtcorrupt
p254
aVturd
p255
aVnot_angri
p256
aVthird
p257
aVconfeder
p258
aVriggedsystem
p259
aVrevolv
p260
aVimposs
p261
aVwink
p262
aVgreen
p263
aVnot_huma
p264
aVnot_bent
p265
aVnot_protest
p266
aVfan
p267
aVqueenofcorrupt
p268
aVwind
p269
aVjack
p270
aVnot_do.h
p271
aVdeci
p272
aVincit
p273
aVnot_anymor
p274
aVoffici
p275
aVfall
p276
aVorang
p277
aVrememberthetitan
p278
aVlettalkyou
p279
aVcarnag
p280
aVsodesperatetrp
p281
aVprivileg
p282
aVdazzl
p283
aVappar
p284
aVjapan
p285
aVsentenc
p286
aValbani
p287
aVfix
p288
aVhypnot
p289
aVdenver
p290
aVbetter
p291
aVspoken
p292
aVoffic
p293
aVremnick
p294
aVhypocrisi
p295
aVnot_babi
p296
aVfo
p297
aVnot_expos
p298
aVcree
p299
aVsplit
p300
aVnot_least
p301
aVnot_n
p302
aVnot_l
p303
aViowa
p304
aVtourist
p305
aVnot_thug
p306
aVnot_h
p307
aVenrich
p308
aVsafe
p309
aVnot_along
p310
aVdisturb
p311
aVfinish
p312
aVscene
p313
aVbreak
p314
aVpromis
p315
aVgerman
p316
aVnot_war
p317
aVnot_color
p318
aVresourc
p319
aVnot_u
p320
aVnot_t
p321
aVnot_way
p322
aVnot_r
p323
aVbank
p324
aVtrumpindalla
p325
aVnot_messag
p326
aVchoic
p327
aVnot_ok
p328
aVnot_oj
p329
aVnot_htt
p330
aVbosnia
p331
aVnot_on
p332
aVl
p333
aVundermin
p334
aVnot_wealth
p335
aVshambl
p336
aVnewport
p337
aVyou.wisdom
p338
aVroast
p339
aVnot_bound
p340
aVnot_fact
p341
aVwent
p342
aVsham
p343
aVnot_fbi
p344
aVside
p345
aVmean
p346
aVhealthcar
p347
aVdemocraticconvent
p348
aVnavi
p349
aVstronger
p350
aVoppos
p351
aVforgot
p352
aVblackmail
p353
aVfairtax
p354
aVescapad
p355
aVsaturday
p356
aVrt
p357
aVnot_hear
p358
aVrw
p359
aVnetwork
p360
aVrs
p361
aVgoe
p362
aVgod
p363
aVnicklaus
p364
aVlaid
p365
aVnot_talk
p366
aVgot
p367
aVware
p368
aVgov
p369
aVpoliticsismessi
p370
aVgop
p371
aVhogan
p372
aVnot_ivana
p373
aVurin
p374
aVhillaryclinton
p375
aVarizona
p376
aVtcot
p377
aVveto
p378
aVaudienc
p379
aVnightmar
p380
aVindicthillari
p381
aVlawless
p382
aVfree
p383
aVstandard
p384
aVtrumptrain
p385
aVuslatino
p386
aVdeflect
p387
aVcavemen
p388
aVkit
p389
aVintelligenc
p390
aVsilent
p391
aVmvp
p392
aVwelfar
p393
aVnot_deplor
p394
aVbarbecu
p395
aVseiz
p396
aVconvent
p397
aVjodi
p398
aVsaynototrump
p399
aVisi
p400
aVheck
p401
aVunabl
p402
aViphon
p403
aVsubtl
p404
aVconfus
p405
aVpoliticus
p406
aVnot_theyr
p407
aVfantasi
p408
aVnot_split
p409
aVgrade
p410
aVindepend
p411
aVnot_materi
p412
aVwast
p413
aVrank
p414
aVnot_usa
p415
aVrant
p416
aVunlik
p417
aValreadi
p418
aVmessag
p419
aVcomic
p420
aVagre
p421
aVprimari
p422
aVhood
p423
aVnot_money
p424
aVhospit
p425
aVnomin
p426
aVtop
p427
aVsometim
p428
aVdemplatform
p429
aVnot_tak
p430
aVkinder
p431
aVmerica
p432
aVmaster
p433
aVtom
p434
aVbrainwash
p435
aVtragic
p436
aVhollywood
p437
aVjohn
p438
aVtwittosofia
p439
aVimo
p440
aVlisten
p441
aVyournewstweet
p442
aVnot_cancel
p443
aVmurder
p444
aVtool
p445
aVtook
p446
aVdirect
p447
aVwarmong
p448
aVlionel
p449
aVwestern
p450
aVconserv
p451
aVjefferi
p452
aVsticker
p453
aVdonaldtrump
p454
aVnot_system
p455
aVtarget
p456
aVnot_nuclear
p457
aVprovid
p458
aVnot_requir
p459
aVcoward
p460
aVxenophob
p461
aVrate
p462
aVcite
p463
aVtrey
p464
aVmatter
p465
aVpressur
p466
aVnot_stud
p467
aVwiesel
p468
aVdesign
p469
aVminut
p470
aVled
p471
aVpoland
p472
aVrag
p473
aVdonkey
p474
aVfashion
p475
aVcontenti
p476
aVclose
p477
aVnot_dem
p478
aVran
p479
aVnot_dec
p480
aVmind
p481
aVmine
p482
aVmedicin
p483
aVlbc
p484
aVincrement
p485
aVimpeachobama
p486
aVseem
p487
aVseek
p488
aVperino
p489
aVrebrand
p490
aVluxuri
p491
aVthat
p492
aVthorough
p493
aVjamescomey
p494
aVwaronwhit
p495
aVnot_act
p496
aVluntz
p497
aVsleeper
p498
aVnot_angst
p499
aVprerog
p500
aVkremlin
p501
aVeven
p502
aVnot_evid
p503
aVnot_need
p504
aVbroug
p505
aVthough
p506
aVbruce
p507
aVdoin
p508
aVobject
p509
aVwhat
p510
aVmarin
p511
aVnot_divid
p512
aVregular
p513
aVpantsuit
p514
aVletter
p515
aVcoin
p516
aVnot_http
p517
aVshalt
p518
aVdoj
p519
aVexcus
p520
aVwaroncop
p521
aVdom
p522
aVprofessor
p523
aVcamp
p524
aVdog
p525
aVdod
p526
aVspend
p527
aVdeclar
p528
aVmedicar
p529
aVnot_govt
p530
aVlpc
p531
aVoppress
p532
aVcame
p533
aVnot_anywher
p534
aVnot_alway
p535
aVnot_folk
p536
aVnot_trust
p537
aVopposit
p538
aVprobe
p539
aVsage
p540
aVdupe
p541
aVnot_prior
p542
aVcorp
p543
aVnot_enforc
p544
aVdopey
p545
aVsexism
p546
aVnot_johnson
p547
aVnephew
p548
aVandrea
p549
aVbail
p550
aVsandersforpresid
p551
aVinvolv
p552
aVabsolut
p553
aVpledg
p554
aVmate
p555
aVnot_nam
p556
aVhrs
p557
aVrihanna
p558
aVnot_camp
p559
aVbush
p560
aVbusi
p561
aVnot_nat
p562
aVdisgust
p563
aVnot_healthcar
p564
aVnot_hug
p565
aVbread
p566
aVcruzn
p567
aVnot_li
p568
aVhrc
p569
aVbuse
p570
aVplate
p571
aVnasti
p572
aVde
p573
aVwatch
p574
aVdc
p575
aVda
p576
aVpocket
p577
aVcowel
p578
aVreport
p579
aVhaiti
p580
aVdu
p581
aVdr
p582
aVrelish
p583
aVlmao
p584
aVbat
p585
aVbar
p586
aVbugbear
p587
aVnras
p588
aVnot_begun
p589
aVsecretari
p590
aVbag
p591
aVbad
p592
aVerupt
p593
aVhumanist
p594
aVnot_stoic
p595
aVban
p596
aVsteak
p597
aVsteal
p598
aVpocahonta
p599
aVrespond
p600
aVimpun
p601
aVvampir
p602
aVvictim
p603
aVfair
p604
aVnut
p605
aVdillard
p606
aVresult
p607
aVrespons
p608
aVcorrupt
p609
aVchristian
p610
aVwhitegenocid
p611
aVhammer
p612
aVnot_invit
p613
aVbest
p614
aVsubject
p615
aVawar
p616
aVsaid
p617
aVdatabas
p618
aVnot_potus
p619
aVnot_interest
p620
aVfugelsang
p621
aVyet
p622
aVnot_shock
p623
aVsista
p624
aVoutstand
p625
aVglobalist
p626
aVnot_latino
p627
aVreggi
p628
aVapproach
p629
aVnot_donald
p630
aVrgp
p631
aVaccord
p632
aVomg
p633
aValum
p634
aVwo
p635
aVtrunp
p636
aVnot_funni
p637
aVnot_assault
p638
aVstillsand
p639
aVwi
p640
aVwh
p641
aVnot_comey
p642
aVwear
p643
aVextent
p644
aVnews
p645
aVnewt
p646
aVham
p647
aVcop
p648
aVprotect
p649
aVaccident
p650
aVveep
p651
aVeasi
p652
aVcow
p653
aVsurrog
p654
aVill
p655
aVbotch
p656
aVconcl
p657
aVmisguid
p658
aVjuanita
p659
aVbrag
p660
aVlogic
p661
aVcountri
p662
aVcon
p663
aVcompromis
p664
aVprospect
p665
aVskill
p666
aVtough
p667
aVrapecas
p668
aVwhitepriviledgemean
p669
aVnot_sound
p670
aVnot_death
p671
aVconspiraci
p672
aVtntvote
p673
aVtrust
p674
aVassum
p675
aVhitler
p676
aVspeak
p677
aVreciev
p678
aVstrong
p679
aVunion
p680
aVfri
p681
aVthree
p682
aVplantat
p683
aVspecul
p684
aVcommission
p685
aVmuch
p686
aVinterest
p687
aVbasic
p688
aVpro
p689
aVhubri
p690
aVchug
p691
aVlife
p692
aVnot_flag
p693
aVsuppress
p694
aVhilla
p695
aVworker
p696
aVnot_prev
p697
aVfest
p698
aVchild
p699
aVchili
p700
aVvotin
p701
aVsabotag
p702
aVchill
p703
aVugli
p704
aVeast
p705
aVtank
p706
aVservic
p707
aVteamfollowback
p708
aVneal
p709
aVmater
p710
aVair
p711
aVemploy
p712
aVdept
p713
aVnear
p714
aVvisit
p715
aVoccas
p716
aVaid
p717
aVhater
p718
aVsettler
p719
aVnot_job.it
p720
aVtim
p721
aVseven
p722
aVnot_thank
p723
aVjealous
p724
aVmexico
p725
aVnot_old
p726
aVlosertrump
p727
aVit
p728
aVplayer
p729
aVcompetit
p730
aVim
p731
aVnot_stuff
p732
aVtalknerdytom
p733
aVnot_conclud
p734
aVsever
p735
aVfreethedeleg
p736
aVcredit
p737
aVreceiv
p738
aVsuggest
p739
aVmake
p740
aVnot_selfish
p741
aVwound
p742
aVdemdumb
p743
aVdoofus
p744
aVnot_sad
p745
aVnot_fast
p746
aVnot_root
p747
aVnot_ghetto
p748
aVnot_demplatform
p749
aVnot_commun
p750
aVnot_mil
p751
aVdhs
p752
aVcomplet
p753
aVnot_deal
p754
aVnot_conspiraci
p755
aVleftist
p756
aVnot_gle
p757
aVdro
p758
aVevid
p759
aVsaddam
p760
aVbalkan
p761
aVhang
p762
aVevil
p763
aVhand
p764
aVkoozi
p765
aVnot_communit
p766
aVnot_first
p767
aVstudi
p768
aVkid
p769
aVubon
p770
aVdylan
p771
aVkept
p772
aVnot_investig
p773
aVscenario
p774
aVcoldplay
p775
aVnascaronnbcsn
p776
aVsuperpred
p777
aVistg
p778
aVkyle
p779
aVchanger
p780
aVanim
p781
aVclient
p782
aVgreatest
p783
aVthi
p784
aVmother
p785
aVwhiteprivil
p786
aVeveryth
p787
aVlegisl
p788
aVleft
p789
aVnot_liv
p790
aVnot_heart
p791
aVidentifi
p792
aVbargain
p793
aVyea
p794
aVphoto
p795
aVscam
p796
aVindicth
p797
aVvirgina
p798
aVhuman
p799
aVhomeow
p800
aVyes
p801
aVcosbi
p802
aVbrandish
p803
aVhillbilli
p804
aVnot_fre
p805
aVchaffetz
p806
aVeli
p807
aVstepdownhillari
p808
aVnot_int
p809
aVexpos
p810
aVhilly
p811
aVnwo
p812
aVshout
p813
aVspread
p814
aVboard
p815
aVrecommend
p816
aVprison
p817
aVnot_indict
p818
aVsave
p819
aVhat
p820
aVamazonian
p821
aVgave
p822
aVnot_pick
p823
aVfollowback
p824
aVmayb
p825
aVrnc
p826
aVnot_hilari
p827
aVnot_malcolm
p828
aVdonat
p829
aVnationalisti
p830
aVboxer
p831
aVbackground
p832
aVgovt
p833
aVroach
p834
aVathlet
p835
aVnot_fasc
p836
aVnot_rich
p837
aVmeasur
p838
aVnot_abl
p839
aVnot_year
p840
aVnot_lawsuit
p841
aVnot_ppl
p842
aVnot_idaho
p843
aVcontradict
p844
aVhunt
p845
aVorlando
p846
aVnot_command
p847
aVnot_polici
p848
aVremind
p849
aVtransform
p850
aVarmi
p851
aVnight
p852
aVkateslaw
p853
aVnot_inf
p854
aVnot_abt
p855
aVmatchup
p856
aVunnecessari
p857
aVkilari
p858
aVattorney
p859
aVright
p860
aVnot_matt
p861
aVdeal
p862
aVdishonest
p863
aVdisord
p864
aVmembran
p865
aVsomehow
p866
aVdead
p867
aVinspiring.thi
p868
aVborn
p869
aVdonald
p870
aVnot_both
p871
aVdear
p872
aVpain
p873
aVnot_breakthefound
p874
aVstrongertogeth
p875
aVbell
p876
aVnot_annu
p877
aVdeaf
p878
aVnot_everyth
p879
aVphilando
p880
aVdeploy
p881
aVfox
p882
aVice
p883
aVnot_dirti
p884
aVnot_lyin
p885
aVdemocraticplatform
p886
aVcnn
p887
aVconvict
p888
aVdia
p889
aVcore
p890
aVparticular
p891
aVnot_berni
p892
aVpls
p893
aVdefend
p894
aVcamper
p895
aVburn
p896
aVburi
p897
aVegregi
p898
aVnot_fool
p899
aVblackoutcnn
p900
aVcolleg
p901
aVpromot
p902
aVkeeper
p903
aVpost
p904
aVsuper
p905
aVtrumpster
p906
aVmr.trump
p907
aVnot_mr
p908
aVrebuk
p909
aVdnc
p910
aVlackey
p911
aVtgdn
p912
aVcontamin
p913
aVnot_humanitarian
p914
aVdinner
p915
aVplus
p916
aVnot_hrc
p917
aVcommit
p918
aVmarshal
p919
aVbannon
p920
aVguncontrol
p921
aVnationalpol
p922
aVnot_indiffer
p923
aVcivil
p924
aVahh
p925
aVnot_mob
p926
aVprofession
p927
aVsol
p928
aVpokmon
p929
aVson
p930
aVslurp
p931
aVsos
p932
aVengulf
p933
aVold
p934
aVdowd
p935
aVnot_mor
p936
aVnot_mov
p937
aVnot_declar
p938
aVfabric
p939
aVfrustrat
p940
aVsupport
p941
aVnot_cop
p942
aVnot_woman
p943
aVfight
p944
aVfought
p945
aVnot_hair
p946
aVeditor
p947
aVnot_com
p948
aVscheer
p949
aVwar
p950
aVnot_reduc
p951
aVnuck
p952
aVanalysi
p953
aVhead
p954
aVoffer
p955
aVforc
p956
aVpollster
p957
aVheal
p958
aVnot_peopl
p959
aVforg
p960
aVsurveil
p961
aVhear
p962
aVfoxsmack
p963
aVmelania
p964
aVindiana
p965
aVearn
p966
aVbern
p967
aVtrue
p968
aVnot_jail
p969
aVreset
p970
aVmisinform
p971
aVgrace
p972
aVfriday
p973
aVrevel
p974
aVsupp
p975
aVrattl
p976
aVcomeyhear
p977
aVdoherti
p978
aVboss
p979
aVdouch
p980
aVnicest
p981
aVnot_recov
p982
aVsling
p983
aVdissemin
p984
aVretir
p985
aVnot_spit
p986
aVclassif
p987
aVshooter
p988
aVgreaterthan
p989
aVpetit
p990
aVisrael
p991
aVproven
p992
aVbiden
p993
aVgemini
p994
aVexist
p995
aVprayer
p996
aVnot_ask
p997
aVnot_promot
p998
aVcheck
p999
aVfloor
p1000
aVredwood
p1001
aVstake
p1002
aVexcel
p1003
aVne
p1004
aVny
p1005
aVrole
p1006
aVcommunic
p1007
aVtie
p1008
aVdoyo
p1009
aVnot_husband
p1010
aVunlimit
p1011
aVrealiti
p1012
aVharrisonford
p1013
aVlegitim
p1014
aVphoenix
p1015
aVnot_eith
p1016
aVmakeamericasafeagain
p1017
aVnot_convinc
p1018
aVnot_blam
p1019
aVintens
p1020
aVintent
p1021
aVaward
p1022
aVmaureen
p1023
aVdearborn
p1024
aVnot_oath
p1025
aVweekend
p1026
aVnot_fasci
p1027
aVbillion
p1028
aVfemal
p1029
aVfaster
p1030
aVyuge
p1031
aVnot_treason
p1032
aVnot_altonsterl
p1033
aVignor
p1034
aVfsu
p1035
aVtime
p1036
aVpush
p1037
aVserious
p1038
aVnot_chang
p1039
aVdaili
p1040
aVwhiteamerican
p1041
aVrecipi
p1042
aVnot_look
p1043
aVnot_leg
p1044
aVron
p1045
aVcrookedhiliari
p1046
aVbluelivesmatt
p1047
aVglobal
p1048
aVnot_basebal
p1049
aVwapo
p1050
aVhawaii
p1051
aVnot_gaza
p1052
aVsignific
p1053
aVnot_let
p1054
aVskin
p1055
aVmilo
p1056
aVchair
p1057
aVhole
p1058
aVnot_rush
p1059
aVnot_bit
p1060
aVdecid
p1061
aVmiddl
p1062
aVdepend
p1063
aVzone
p1064
aVflash
p1065
aVfather
p1066
aVcrater
p1067
aVenvironment
p1068
aViraqi
p1069
aVnot_big
p1070
aVdecis
p1071
aVivankatrump
p1072
aVterror
p1073
aVhuma
p1074
aVoversight
p1075
aVbrown
p1076
aVsourc
p1077
aVstring
p1078
aVjerk
p1079
aVdictat
p1080
aVginsburg
p1081
aVrem
p1082
aVwharton
p1083
aVnot_anarchist
p1084
aVmourn
p1085
aVlynch
p1086
aVcondit
p1087
aVjoin
p1088
aVblast
p1089
aVexact
p1090
aVnot_project
p1091
aVccot
p1092
aVvladimir
p1093
aVadministr
p1094
aVlevel
p1095
aVdie
p1096
aVhenri
p1097
aVdemocrat
p1098
aVprob
p1099
aVnewsflash
p1100
aVp
p1101
aVnot_tart
p1102
aVteam
p1103
aVcooki
p1104
aVguy
p1105
aVyall
p1106
aVnot_respect
p1107
aVprevent
p1108
aVbrave
p1109
aVregret
p1110
aVneverhilla
p1111
aVnot_emperor
p1112
aVbravo
p1113
aVnot_turnbul
p1114
aVnot_democraci
p1115
aVcyber
p1116
aVsign
p1117
aVblue
p1118
aVeverytim
p1119
aVasriel
p1120
aVhtt
p1121
aVcorner
p1122
aVnot_pico
p1123
aVpatient
p1124
aVrapist
p1125
aVappear
p1126
aVeconomist
p1127
aVnot_br
p1128
aVpriesdent
p1129
aVuniform
p1130
aVcurrent
p1131
aVbl
p1132
aVbatonroug
p1133
aVkiriakou
p1134
aVsuspect
p1135
aVsomalia
p1136
aVwhoah
p1137
aVnot_devil
p1138
aVnine
p1139
aVorder
p1140
aVboost
p1141
aVnot_hand
p1142
aVslot
p1143
aVstefan
p1144
aVdefici
p1145
aVnot_fight
p1146
aVguardian
p1147
aVmuslim
p1148
aVplz
p1149
aVwater
p1150
aVnot_afraid
p1151
aVprelim
p1152
aVentertain
p1153
aVwitch
p1154
aVaddress
p1155
aValong
p1156
aVteacher
p1157
aVwait
p1158
aVbox
p1159
aVmafioso
p1160
aVnot_democrat
p1161
aVinsan
p1162
aVsheriff
p1163
aVnot_dncisdeadtom
p1164
aVbrilliant
p1165
aVplotter
p1166
aVbor
p1167
aVbow
p1168
aVtrial
p1169
aVhealthc
p1170
aVnot_next
p1171
aVboo
p1172
aVextrem
p1173
aVguilti
p1174
aVcanid
p1175
aVipa
p1176
aVlove
p1177
aVnot_fundamentalist
p1178
aVazsen
p1179
aVvodka
p1180
aVrally.thi
p1181
aVfake
p1182
aVnot_sway
p1183
aVinstal
p1184
aVfbi
p1185
aVpeep
p1186
aVsandernista
p1187
aVamericafirst
p1188
aVnot_meet
p1189
aVprove
p1190
aVsake
p1191
aVunivers
p1192
aVdude
p1193
aVoreilli
p1194
aVhashtag
p1195
aVeverybodi
p1196
aVlive
p1197
aVhttps
p1198
aVprez
p1199
aVsatan
p1200
aVangri
p1201
aVthru
p1202
aVnot_footbal
p1203
aVpres
p1204
aVroundup
p1205
aVcapit
p1206
aVnotic
p1207
aVriot
p1208
aVnot_frump
p1209
aVafford
p1210
aVpeopl
p1211
aVnbcsn
p1212
aVkerri
p1213
aVoop
p1214
aVmba
p1215
aVeffort
p1216
aVbehalf
p1217
aVnot_freedom
p1218
aVreligi
p1219
aVgraphic
p1220
aVslogan
p1221
aVnot_check
p1222
aVcar
p1223
aVprepar
p1224
aVpretend
p1225
aVjudg
p1226
aVsoul
p1227
aVdavebratt
p1228
aVvega
p1229
aVwhatev
p1230
aVcam
p1231
aVdesertali
p1232
aVpurpos
p1233
aVyou.w
p1234
aVsupremaci
p1235
aVclaim
p1236
aViamwithyou
p1237
aVfavourit
p1238
aVtrump
p1239
aVstream
p1240
aVpredict
p1241
aVchip
p1242
aVagent
p1243
aVtopic
p1244
aVnot_deserv
p1245
aVcritic
p1246
aVabort
p1247
aVsharp
p1248
aVnot_doubt
p1249
aVunfortun
p1250
aVstole
p1251
aVoccur
p1252
aVoccup
p1253
aVbigot
p1254
aVruthbaderginsburg
p1255
aVmsms
p1256
aVbankrupt
p1257
aVnot_pew
p1258
aVlubbock
p1259
aVfoul
p1260
aVpenthous
p1261
aVnot_also
p1262
aVnyt
p1263
aVwrite
p1264
aValway
p1265
aVrubio
p1266
aVnot_cleveland
p1267
aVanyon
p1268
aVsextpantherdotcom
p1269
aVpure
p1270
aVnyc
p1271
aVnot_deceit
p1272
aVnot_cloth
p1273
aVeight
p1274
aVfailfriday
p1275
aVdellcom
p1276
aVspox
p1277
aVfascist
p1278
aVmax
p1279
aVslush
p1280
aVfed
p1281
aVnot_america
p1282
aVbrazen
p1283
aVwarrent
p1284
aVriiighhhtt
p1285
aVpattern
p1286
aVmad
p1287
aVmag
p1288
aVnot_cruz
p1289
aVdata
p1290
aVgrow
p1291
aVnobodyabovethelaw
p1292
aVman
p1293
aVstress
p1294
aVnot_enthusiasm
p1295
aVpractic
p1296
aVjohnson
p1297
aVsecur
p1298
aVideolog
p1299
aVsu
p1300
aVoffens
p1301
aVinform
p1302
aVswitch
p1303
aVpreced
p1304
aVjail
p1305
aVunequivoc
p1306
aVnot_zombi
p1307
aVafrican
p1308
aVoffend
p1309
aVbattl
p1310
aVtalk
p1311
aVsteintim
p1312
aVhorrifi
p1313
aVapprov
p1314
aVmiracl
p1315
aVkong
p1316
aVbrain
p1317
aVdanneywilliam
p1318
aVnot_alreadi
p1319
aVentitl
p1320
aVstill
p1321
aVadopt
p1322
aVcola
p1323
aVethic
p1324
aVgroup
p1325
aVthank
p1326
aVconcis
p1327
aVpolici
p1328
aVjim
p1329
aVopportun
p1330
aVlyin
p1331
aVplatform
p1332
aVnot_fin
p1333
aVnsa
p1334
aVmail
p1335
aVmsnbc
p1336
aVtruli
p1337
aVnot_frack
p1338
aVnom
p1339
aVnon
p1340
aVfrancoi
p1341
aVfinanci
p1342
aVrake
p1343
aVsooner
p1344
aVnation
p1345
aVretrain
p1346
aVanswer
p1347
aVnot_risk
p1348
aValon
p1349
aVmakeamericagreatagain
p1350
aVgate
p1351
aVnot_million
p1352
aVnot_satan
p1353
aVppl
p1354
aVplaybook
p1355
aVhall
p1356
aVnot_lambclinton
p1357
aVwont
p1358
aVterm
p1359
aVname
p1360
aVbeach
p1361
aVdrop
p1362
aVnot_someth
p1363
aVmagazin
p1364
aVpeasant
p1365
aVcareless
p1366
aVnot_ross
p1367
aVnot_behind
p1368
aVrecreat
p1369
aVconfid
p1370
aVterr
p1371
aVnot_origin
p1372
aVcompil
p1373
aVann
p1374
aVlowkey
p1375
aVcollud
p1376
aVed
p1377
aVyeah
p1378
aVbradley
p1379
aVfallin
p1380
aVwhiteguilt
p1381
aVfever
p1382
aVex
p1383
aVyear
p1384
aVhonduran
p1385
aVhappen
p1386
aVhysteria
p1387
aVhacker
p1388
aVaccomplish
p1389
aVjackson
p1390
aVprofit
p1391
aVtwtr
p1392
aVoklahoma
p1393
aVneprimari
p1394
aVenriqu
p1395
aVblm
p1396
aVbday
p1397
aVdecal
p1398
aVnot_obama
p1399
aVdutch
p1400
aVwinwithmarco
p1401
aVironi
p1402
aVsweet
p1403
aVcorrect
p1404
aVnot_kid
p1405
aVnot_put
p1406
aVearlier
p1407
aVmonster
p1408
aVnot_whov
p1409
aVdomest
p1410
aVmillion
p1411
aVtheyv
p1412
aVargu
p1413
aVsneak
p1414
aVdisrespect
p1415
aVnot_whol
p1416
aVzombi
p1417
aVtheori
p1418
aVplea
p1419
aVorg
p1420
aVcough
p1421
aVunpredict
p1422
aVcard
p1423
aVcare
p1424
aVhillaryabovelaw
p1425
aVassang
p1426
aVrefut
p1427
aVsyndic
p1428
aVrefus
p1429
aVhonest
p1430
aVrecov
p1431
aVthing
p1432
aVnot_mysteri
p1433
aVplace
p1434
aVvision
p1435
aVswing
p1436
aVembrac
p1437
aVloretta
p1438
aVpreach
p1439
aVericcantor
p1440
aVthink
p1441
aVammo
p1442
aVfirst
p1443
aVorigin
p1444
aVnot_pass
p1445
aVoppon
p1446
aVnot_past
p1447
aVcarri
p1448
aVrachel
p1449
aVone
p1450
aVreopen
p1451
aVlong
p1452
aVvote
p1453
aVarray
p1454
aVopen
p1455
aVtomorrow
p1456
aVsheep
p1457
aVnot_enemi
p1458
aVnot_host
p1459
aVwrath
p1460
aVdistrict
p1461
aVcaught
p1462
aVnot_integr
p1463
aVparallel
p1464
aVcarson
p1465
aVciti
p1466
aVsilenc
p1467
aVratchathani
p1468
aVnot_run
p1469
aVunindict
p1470
aVwhite
p1471
aVconveni
p1472
aVhilliari
p1473
aVnot_listen
p1474
aVfriend
p1475
aVhillari
p1476
aVfuner
p1477
aVway
p1478
aVespeci
p1479
aVseason
p1480
aVcopi
p1481
aVhuh
p1482
aVnot_elect
p1483
aVwhiteprivlegemean
p1484
aVblacklist
p1485
aVshort
p1486
aVdate
p1487
aVattempt
p1488
aVuncov
p1489
aVboyfriend
p1490
aVserv
p1491
aVwide
p1492
aVmitzvah
p1493
aVrival
p1494
aVgotta
p1495
aVhsbc
p1496
aVunvet
p1497
aVbanner
p1498
aVnot_co
p1499
aVr
p1500
aVbalanc
p1501
aVnot_ck
p1502
aVwere
p1503
aVposit
p1504
aVnot_humili
p1505
aVnot_cod
p1506
aVoath
p1507
aVrussia
p1508
aVnot_say
p1509
aVmountain
p1510
aVportsmouth
p1511
aVsupremacist
p1512
aVnot_
p1513
aVpremier
p1514
aVargument
p1515
aVsad
p1516
aValleg
p1517
aVnot_newt
p1518
aVsay
p1519
aVslam
p1520
aVgreet
p1521
aVdeliv
p1522
aVportrait
p1523
aVturner
p1524
aVsaw
p1525
aVnot_min
p1526
aVnot_saf
p1527
aVdemtownhal
p1528
aVengin
p1529
aVadvic
p1530
aVveteran
p1531
aVretroact
p1532
aVworrisom
p1533
aVnote
p1534
aVberni
p1535
aVideal
p1536
aVtake
p1537
aVshocker
p1538
aVdestroy
p1539
aVwonder
p1540
aVblunt
p1541
aVtoysailboat
p1542
aVincoher
p1543
aVtelevis
p1544
aVbegin
p1545
aVsure
p1546
aVprick
p1547
aVnot_twitt
p1548
aVprice
p1549
aVknew
p1550
aVnot_cheif
p1551
aVpaid
p1552
aVbutterfli
p1553
aVassault
p1554
aVabus
p1555
aVneocon
p1556
aVnot_corruptclinton
p1557
aVamerica
p1558
aVnot_saturda
p1559
aVnot_republicansforhillari
p1560
aVnot_candid
p1561
aVnot_muslim
p1562
aVnot_smart
p1563
aVrescu
p1564
aVangst
p1565
aVlater
p1566
aVdrive
p1567
aVmrs
p1568
aVyoutub
p1569
aVnot_consul
p1570
aVnot_british
p1571
aVcorrin
p1572
aVnot_ur
p1573
aVsenior
p1574
aVabraham
p1575
aVnot_intent
p1576
aVsavag
p1577
aVactualidad
p1578
aVvoanew
p1579
aVshot
p1580
aVshow
p1581
aVrhetor
p1582
aVtntweeter
p1583
aVnot_gonna
p1584
aVgeographi
p1585
aVnot_offic
p1586
aVhagoodmanauthor
p1587
aVhack
p1588
aVnot_second
p1589
aVmexican
p1590
aVnot_giv
p1591
aVnot_anyon
p1592
aVfeedback
p1593
aVenthusiast
p1594
aVmoderaror
p1595
aVmurphi
p1596
aVadolf
p1597
aVfenc
p1598
aVfavor
p1599
aVromanian
p1600
aVimbal
p1601
aVactiv
p1602
aVwritten
p1603
aVcrime
p1604
aVainf
p1605
aVwood
p1606
aVblack
p1607
aVparakeelia
p1608
aVsurviv
p1609
aVget
p1610
aVstomp
p1611
aVpatriot
p1612
aVgrave
p1613
aVcheat
p1614
aVchemic
p1615
aVcultur
p1616
aVgopdeb
p1617
aVgen
p1618
aVgel
p1619
aVreveal
p1620
aVinsidi
p1621
aVgirl
p1622
aVartist
p1623
aVyoull
p1624
aVhostil
p1625
aVborrow
p1626
aVstupid
p1627
aVroger
p1628
aVreaganom
p1629
aVnot_guarante
p1630
aVhusband
p1631
aVsummari
p1632
aVconscienc
p1633
aVseat
p1634
aVdeadlin
p1635
aVsean
p1636
aVmisconduct
p1637
aVoverwhelm
p1638
aVsport
p1639
aVnot_pretend
p1640
aVconcern
p1641
aVdetect
p1642
aVnot_weari
p1643
aVsuperdeleg
p1644
aVcrystal
p1645
aVreview
p1646
aVnot_upcom
p1647
aVnot_web
p1648
aVlabel
p1649
aVyooo
p1650
aVbehind
p1651
aVun
p1652
aVwayn
p1653
aVjoy
p1654
aVimport
p1655
aVnot_intend
p1656
aVacross
p1657
aVnot_resort
p1658
aVafghanistan
p1659
aVanti
p1660
aVkool
p1661
aVjr
p1662
aVblame
p1663
aVcycl
p1664
aVnot_oil
p1665
aVcome
p1666
aVwhiteprivilegemean
p1667
aVreaction
p1668
aVwhyisupporttrump
p1669
aVlibya
p1670
aVmona
p1671
aVregardless
p1672
aVquiet
p1673
aVj.la
p1674
aVmozzarella
p1675
aVcolumnist
p1676
aVextremelycarelessclinton
p1677
aVnot_defeat
p1678
aVshare
p1679
aVjuch
p1680
aVamong
p1681
aVcancer
p1682
aVcolor
p1683
aVzerger
p1684
aVpos
p1685
aVbaltimor
p1686
aVmccain
p1687
aVduti
p1688
aVexploit
p1689
aVnot_allow
p1690
aVbader
p1691
aVcancel
p1692
aVsupervisor
p1693
aVpoll
p1694
aVcoloni
p1695
aVtaxpay
p1696
aVboat
p1697
aVdamag
p1698
aVnot_mobilis
p1699
aVultim
p1700
aVgovtjihad
p1701
aVhoward
p1702
aVwest
p1703
aVrebuild
p1704
aVibeliev
p1705
aVmark
p1706
aVjess
p1707
aVlegit
p1708
aVdiseas
p1709
aVnot_good
p1710
aVnaruto
p1711
aVnot_suggest
p1712
aVnot_unlik
p1713
aVshortlist
p1714
aVbenoit
p1715
aVthousand
p1716
aVandrew
p1717
aVcatastroph
p1718
aVwake
p1719
aVtextbook
p1720
aVnotpp
p1721
aVnot_follow
p1722
aVrepres
p1723
aVformer
p1724
aVsound
p1725
aVnot_entir
p1726
aVothersid
p1727
aVthesi
p1728
aVscath
p1729
aVamend
p1730
aVmight
p1731
aVtamara
p1732
aVcash
p1733
aVnot_messi
p1734
aVcareer
p1735
aVcrump
p1736
aVhayek
p1737
aVscum
p1738
aVnot_chil
p1739
aVnot_great
p1740
aVive
p1741
aVadvantag
p1742
aVnot_stewart
p1743
aVworri
p1744
aVequal
p1745
aVnot_perfect
p1746
aVnot_sophist
p1747
aVdrug
p1748
aVoutrag
p1749
aVkenya
p1750
aVnot_think
p1751
aVship
p1752
aVnot_info
p1753
aVarsehol
p1754
aVfreat
p1755
aVharsh
p1756
aVnot_catch
p1757
aVnot_endors
p1758
aVpay
p1759
aVhillarysocorrupt
p1760
aVmedic
p1761
aVhimbecaus
p1762
aVeconom
p1763
aVdealer
p1764
aVgrimsbi
p1765
aVceo
p1766
aVnot_quit
p1767
aVspeech
p1768
aVelit
p1769
aVnot_wal
p1770
aVauspol
p1771
aVcomey
p1772
aVmedit
p1773
aVwimbledon
p1774
aVweek
p1775
aVnot_part
p1776
aVjeffrey
p1777
aVputin
p1778
aVnest
p1779
aVnot_you.but
p1780
aVnot_crimin
p1781
aVsomeon
p1782
aVespionag
p1783
aVdirector
p1784
aVfruit
p1785
aVnot_wak
p1786
aVmani
p1787
aVlemon
p1788
aVnot_pari
p1789
aVgingrich
p1790
aVlib
p1791
aVreliev
p1792
aVranch
p1793
aVjustifi
p1794
aVhustl
p1795
aVrelief
p1796
aVvomit
p1797
aVnot_psilocybin
p1798
aVnot_parti
p1799
aVaway
p1800
aVnot_initi
p1801
aVvenu
p1802
aVviolenc
p1803
aVexecut
p1804
aVya
p1805
aVmoney
p1806
aVunflush
p1807
aVnot_sacramento
p1808
aVkilt
p1809
aVrest
p1810
aVinterrupt
p1811
aVviolent
p1812
aVzelize
p1813
aVkill
p1814
aVnot_cri
p1815
aVnot_serv
p1816
aVsilver
p1817
aVtouch
p1818
aVlaughabl
p1819
aVbad.ne
p1820
aVblow
p1821
aVgather
p1822
aVdeath
p1823
aVeurop
p1824
aVfeminist
p1825
aVtrigger
p1826
aVbobbi
p1827
aVexcept
p1828
aVlittl
p1829
aVther
p1830
aVblog
p1831
aVcc
p1832
aVtreatment
p1833
aVirrespons
p1834
aVpow
p1835
aVvulner
p1836
aVnot_your
p1837
aVdisrupt
p1838
aVmomentum
p1839
aVreal
p1840
aVaround
p1841
aVblowout
p1842
aVread
p1843
aVmop
p1844
aVladi
p1845
aVvirginia
p1846
aVgonna
p1847
aVunveil
p1848
aVdark
p1849
aVregim
p1850
aVundrink
p1851
aVwebewok
p1852
aVtraffic
p1853
aVinsist
p1854
aVmom
p1855
aVnot_f
p1856
aVworld
p1857
aVreap
p1858
aVdare
p1859
aVintergener
p1860
aVexagger
p1861
aVnytim
p1862
aVrobberi
p1863
aVpostcard
p1864
aVsmell
p1865
aVtwin
p1866
aVserver
p1867
aVbenefit
p1868
aVnot_anyway
p1869
aVselfpub
p1870
aVeither
p1871
aVnot_gend
p1872
aVtower
p1873
aVrich
p1874
aVmanag
p1875
aVberniesand
p1876
aVcabl
p1877
aVsharehold
p1878
aVfreejeanettej
p1879
aVrealdonaldtrump
p1880
aVtrayvon
p1881
aVlandslid
p1882
aVplayin
p1883
aVracial
p1884
aVconstitut
p1885
aVviral
p1886
aVnot_sign
p1887
aVconfirm
p1888
aVcurious
p1889
aVstopt
p1890
aVlotto
p1891
aVdefinit
p1892
aVryan
p1893
aVlegal
p1894
aVpoc
p1895
aVscandalg
p1896
aVanastasia
p1897
aVunbeliev
p1898
aVgruesom
p1899
aVopenfollow
p1900
aVrefer
p1901
aVnot_jedi
p1902
aVfelt
p1903
aVpew
p1904
aVpower
p1905
aVkelliwardaz
p1906
aVgarbag
p1907
aVration
p1908
aVetsypreneu
p1909
aVbroken
p1910
aVleadership
p1911
aVnot_tel
p1912
aVfound
p1913
aVpowel
p1914
aVlawenforc
p1915
aVreferr
p1916
aVthrow
p1917
aVcomparison
p1918
aVstone
p1919
aVok
p1920
aVsavvi
p1921
aVtestimoni
p1922
aVsmear
p1923
aVod
p1924
aVnot_votersuppress
p1925
aVob
p1926
aVnot_guilt
p1927
aVfallaci
p1928
aVwhitehatr
p1929
aVuniteblu
p1930
aVwolf
p1931
aVstand
p1932
aVneighbor
p1933
aVact
p1934
aVindustri
p1935
aVluck
p1936
aVnot_assur
p1937
aVprovincetown
p1938
aVconsid
p1939
aVgari
p1940
aVpresidenti
p1941
aVboon
p1942
aVsuicid
p1943
aVnot_gitmo
p1944
aVdenounc
p1945
aVstoke
p1946
aVnot_that
p1947
aVnurs
p1948
aVjerusalem
p1949
aVnot_congress
p1950
aVyour
p1951
aVunconvent
p1952
aVnot_compar
p1953
aVloc
p1954
aVher
p1955
aVhes
p1956
aVnot_se
p1957
aVdumphillari
p1958
aVthere
p1959
aVnot_immun
p1960
aVphiladelphia
p1961
aVlol
p1962
aVhed
p1963
aVstart
p1964
aVfascin
p1965
aVracist
p1966
aVlow
p1967
aVlot
p1968
aVdonaldduck
p1969
aVnot_postpon
p1970
aVhen
p1971
aVdowner
p1972
aVnot_whit
p1973
aVbottl
p1974
aVnot_savag
p1975
aVenough
p1976
aVconcess
p1977
aVanarchi
p1978
aVnot_right
p1979
aVintern
p1980
aVbarri
p1981
aVfighter
p1982
aVrealli
p1983
aVillus
p1984
aVhaitian
p1985
aVpull
p1986
aVhire
p1987
aVfraud
p1988
aVdirti
p1989
aVpossibl
p1990
aVdefault
p1991
aVnot_blu
p1992
aVnot_maga
p1993
aVnot_blm
p1994
aVsite
p1995
aVgibberish
p1996
aVnot_feelthebern
p1997
aVad
p1998
aVcreat
p1999
aVcinema
p2000
aVnot_pol
p2001
aVah
p2002
aVdeep
p2003
aVfellow
p2004
aVnot_pot
p2005
aVap
p2006
aVnot_pow
p2007
aVfile
p2008
aVav
p2009
aVgirlfriend
p2010
aVvotedo
p2011
aVsyrian
p2012
aVfill
p2013
aVyoo
p2014
aVgoogl
p2015
aVidiot
p2016
aVnot_deliber
p2017
aVloyal
p2018
aVnot_smh
p2019
aVclin
p2020
aVvalid
p2021
aVcompet
p2022
aVnot_bett
p2023
aVtrash
p2024
aVweak
p2025
aVpoor
p2026
aVtrip
p2027
aVauthoritarian
p2028
aVhey
p2029
aVcongress
p2030
aVnot_trmp
p2031
aVsymbol
p2032
aVkateclinton
p2033
aVnot_chanc
p2034
aVnot_contradict
p2035
aVnot_mexican
p2036
aVchris
p2037
aVgalatian
p2038
aVbrass
p2039
aVpelosi
p2040
aVpeac
p2041
aVnot_obstruct
p2042
aVnot_cit
p2043
aVfiscal
p2044
aVdeliber
p2045
aVnot_threaten
p2046
aVvictori
p2047
aVmasa
p2048
aVwife
p2049
aVinvest
p2050
aVcpc
p2051
aVinevit
p2052
aVnot_pay
p2053
aVu
p2054
aVtrickl
p2055
aVpotenti
p2056
aVescap
p2057
aVnot_consid
p2058
aVbus
p2059
aVvotetrump
p2060
aVnot_justic
p2061
aVliar
p2062
aVforget
p2063
aVvile
p2064
aVmessi
p2065
aVlack
p2066
aVdollar
p2067
aVvill
p2068
aVunrest
p2069
aVsuxbal
p2070
aVabil
p2071
aVdish
p2072
aVfollow
p2073
aVnot_benghazi
p2074
aVsettlement
p2075
aVnot_fear
p2076
aVchildren
p2077
aVhmmm
p2078
aVvotr
p2079
aVnot_invest
p2080
aVdairi
p2081
aVnot_butt
p2082
aVnot_stat
p2083
aVtr
p2084
aVnot_star
p2085
aVarticl
p2086
aVtn
p2087
aVhumili
p2088
aVth
p2089
aVskip
p2090
aVsmile
p2091
aVnot_brain
p2092
aVneglig
p2093
aVrob
p2094
aVintroduc
p2095
aVcase
p2096
aVwoman
p2097
aVfals
p2098
aVhorror
p2099
aVfav
p2100
aVfocus
p2101
aVnot_lead
p2102
aVhypocrit
p2103
aVcandid
p2104
aVworst
p2105
aVnot_foreign
p2106
aVfailur
p2107
aVgenerat
p2108
aVticket
p2109
aVstrang
p2110
aVcommon
p2111
aValien
p2112
aValma
p2113
aVdictatorship
p2114
aVharri
p2115
aVnot_heal
p2116
aVnot_wait
p2117
aVlist
p2118
aVnot_optrump
p2119
aVproud
p2120
aVrandom
p2121
aVadamnat
p2122
aVsane
p2123
aVsmall
p2124
aVmollymacauley
p2125
aVten
p2126
aVdallaspolic
p2127
aVtea
p2128
aVmila
p2129
aVted
p2130
aVsoulless
p2131
aValinskyit
p2132
aVpast
p2133
aVnarrat
p2134
aVradicalleftwingterror
p2135
aVslimi
p2136
aVlawyer
p2137
aVpass
p2138
aVnbc
p2139
aVreinc
p2140
aVbiafran
p2141
aVjesus
p2142
aVdeleg
p2143
aVgl
p2144
aVstood
p2145
aVbarrier
p2146
aVcast
p2147
aVsun
p2148
aVabl
p2149
aVbrief
p2150
aVnot_writ
p2151
aVirrefut
p2152
aVdelet
p2153
aVversion
p2154
aVabt
p2155
aVintersect
p2156
aVnot_men
p2157
aVnot_email
p2158
aVcorrinebrown
p2159
aVpublic
p2160
aVespit
p2161
aVmovement
p2162
aVgirlfr
p2163
aVfull
p2164
aViran
p2165
aVchristi
p2166
aVfave
p2167
aVempower
p2168
aVdecept
p2169
aVlobbyist
p2170
aVtheorist
p2171
aVsuspici
p2172
aVrais
p2173
aVsmartest
p2174
aVmaha
p2175
aVpalin
p2176
aVgreed
p2177
aVcurvebal
p2178
aViraq
p2179
aVvalu
p2180
aVhouser
p2181
aVsearch
p2182
aVnot_enoug
p2183
aVteeth
p2184
aVahead
p2185
aVkayla
p2186
aVwhine
p2187
aVbrutal
p2188
aVchapo
p2189
aVamount
p2190
aVnot_crim
p2191
aVarent
p2192
aVsocial
p2193
aVaction
p2194
aVnot_top
p2195
aVground
p2196
aVbulli
p2197
aVtrainer
p2198
aVvia
p2199
aVdepart
p2200
aVmegyn
p2201
aVdeclin
p2202
aVnot_advic
p2203
aVafrica
p2204
aVnot_careless
p2205
aVthatcher
p2206
aVput
p2207
aVfamili
p2208
aVsanction
p2209
aVunbias
p2210
aVestablish
p2211
aVnot_lik
p2212
aVnot_repres
p2213
aVemoji
p2214
aVaggress
p2215
aVeye
p2216
aVshepard
p2217
aVnot_deni
p2218
aVliber
p2219
aVregist
p2220
aVtwo
p2221
aVcoverag
p2222
aVfring
p2223
aVanger
p2224
aVnot_get
p2225
aVvi
p2226
aVtaken
p2227
aVnot_handl
p2228
aVkick
p2229
aVnot_gingrich
p2230
aVminor
p2231
aVtryna
p2232
aVflaw
p2233
aVdiamond
p2234
aVdoor
p2235
aVlousi
p2236
aVhundr
p2237
aVeditori
p2238
aVlockdown
p2239
aVconvinc
p2240
aVnot_bil
p2241
aVstick
p2242
aVenforc
p2243
aVknown
p2244
aVhotti
p2245
aVcompani
p2246
aVglad
p2247
aVtown
p2248
aVgrill
p2249
aVnot_wrong
p2250
aVhour
p2251
aVhous
p2252
aVcitizen
p2253
aVoutlin
p2254
aVhistori
p2255
aVremain
p2256
aVdel
p2257
aVdem
p2258
aVv
p2259
aVabandon
p2260
aVpokemon
p2261
aVnot_fund
p2262
aVdef
p2263
aVpick
p2264
aVkirk
p2265
aVneverh
p2266
aVnot_fe
p2267
aVchalleng
p2268
aVmethodist
p2269
aVnot_ohsen
p2270
aVaccept
p2271
aVnot_hitl
p2272
aVallegi
p2273
aVthug
p2274
aVminimum
p2275
aVnot_fit
p2276
aVexplor
p2277
aVnot_want
p2278
aVphrase
p2279
aVmn
p2280
aVdress
p2281
aVcondemn
p2282
aVhuge
p2283
aVcours
p2284
aVcourt
p2285
aVgoal
p2286
aVawkward
p2287
aVdivid
p2288
aVrather
p2289
aVanoth
p2290
aVcomfort
p2291
aVperhap
p2292
aVnot_wont
p2293
aVdivis
p2294
aVreject
p2295
aVtrumptax
p2296
aVtensio
p2297
aVstir
p2298
aVgoat
p2299
aVidioci
p2300
aVpinnacl
p2301
aVthreat
p2302
aVfaculti
p2303
aVcalm
p2304
aVbumper
p2305
aVincr
p2306
aVreflect
p2307
aVnot_offens
p2308
aVbreitbart
p2309
aVplane
p2310
aVambassador
p2311
aVblood
p2312
aVgasp
p2313
aVnot_photo
p2314
aVfl
p2315
aVnot_steal
p2316
aVvintag
p2317
aVnot_prob
p2318
aVnot_surv
p2319
aVantiwhit
p2320
aVloud
p2321
aVconvuls
p2322
aVtrevor
p2323
aVcaus
p2324
aVcoal
p2325
aVego
p2326
aVbradi
p2327
aVmedia
p2328
aVgleeful
p2329
aVstewart
p2330
aVdream
p2331
aVendblacklivesmatt
p2332
aVnot_scum
p2333
aVmediscar
p2334
aVhelp
p2335
aVpant
p2336
aVnot_hazard
p2337
aVsoon
p2338
aVtrade
p2339
aVscott
p2340
aVpand
p2341
aVhell
p2342
aVsuffer
p2343
aVnot_convent
p2344
aVperiscop
p2345
aVislam
p2346
aVfoal
p2347
aVdolli
p2348
aVnot_supp
p2349
aVpray
p2350
aVnot_raci
p2351
aValll
p2352
aVnot_show
p2353
aVlate
p2354
aVnot_privileg
p2355
aVbernieorbust
p2356
aVstephen
p2357
aVdannyclinton
p2358
aVcridlin
p2359
aVsenat
p2360
aVfool
p2361
aVgood
p2362
aVreturn
p2363
aVnot_nobl
p2364
aVfood
p2365
aVmadeinchina
p2366
aVukrain
p2367
aVcousin
p2368
aVnot_enrich
p2369
aVsomebodi
p2370
aVicymi
p2371
aVdisgrac
p2372
aVyr
p2373
aVcomplain
p2374
aVbigger
p2375
aVshop
p2376
aVpal
p2377
aVwackjob
p2378
aVunwash
p2379
aVbless
p2380
aVeasili
p2381
aVachiev
p2382
aVprincipl
p2383
aVceas
p2384
aVfulli
p2385
aVnot_nevertrump
p2386
aVnot_crookedhillari
p2387
aVseeyouinphilli
p2388
aVmental
p2389
aVintlship
p2390
aVfish
p2391
aVhard
p2392
aVdobson
p2393
aVidea
p2394
aVbrother
p2395
aVoil
p2396
aVexpect
p2397
aVstabl
p2398
aVslave
p2399
aVenergi
p2400
aVbeyond
p2401
aVevent
p2402
aVnot_floor
p2403
aVmassiv
p2404
aVsafeti
p2405
aVsuprem
p2406
aVobumm
p2407
aVdupre
p2408
aVresearch
p2409
aVbubbl
p2410
aVndnetwork
p2411
aVnot_ignor
p2412
aVhealth
p2413
aVhill
p2414
aVblackl
p2415
aVfoodforthought
p2416
aVtestifi
p2417
aVass
p2418
aVqualifi
p2419
aVnot_telethon
p2420
aVwisconsin
p2421
aVbelief
p2422
aVrumor
p2423
aVadvanc
p2424
aVnot_poss
p2425
aVnot_post
p2426
aVguess
p2427
aVbacker
p2428
aVlesser
p2429
aVcenterfold
p2430
aVnot_lobotomi
p2431
aVreason
p2432
aVbase
p2433
aVnot_illuminati
p2434
aVbeliev
p2435
aVfatass
p2436
aVask
p2437
aVnot_prosecut
p2438
aVkamala
p2439
aVnot_releas
p2440
aVjew
p2441
aVthrown
p2442
aVperjur
p2443
aVnot_classifi
p2444
aVstruggl
p2445
aVsicken
p2446
aVamerican
p2447
aVdisguis
p2448
aVdir
p2449
aVw
p2450
aVdebbi
p2451
aVhunger
p2452
aVsyria
p2453
aVlifetim
p2454
aVcoulter
p2455
aVfeed
p2456
aVsympathi
p2457
aVmajor
p2458
aVlivingonchi
p2459
aVfeel
p2460
aVhahahahahha
p2461
aVnumber
p2462
aVdona
p2463
aVelder
p2464
aVcnnbrk
p2465
aVplummet
p2466
aVdone
p2467
aVconstruct
p2468
aVwrongdo
p2469
aVhorribl
p2470
aVeggman
p2471
aVmiss
p2472
aVfanci
p2473
aVrambl
p2474
aVdiffer
p2475
aVnot_centr
p2476
aVguest
p2477
aVnot_surpris
p2478
aVinteract
p2479
aVstoptpp
p2480
aVleast
p2481
aVjeb
p2482
aVstori
p2483
aVstatement
p2484
aVsigh
p2485
aVilleg
p2486
aVdumbass
p2487
aVkos
p2488
aVscheme
p2489
aVbanana
p2490
aVstore
p2491
aVsen.byrd
p2492
aVnot_stand
p2493
aVoption
p2494
aVbelfasttelegraph
p2495
aVhotel
p2496
aVpark
p2497
aVretard
p2498
aVpari
p2499
aVnot_denud
p2500
aVpart
p2501
aVrogu
p2502
aVrain
p2503
aVnot_grow
p2504
aVbetw
p2505
aVshld
p2506
aVobama
p2507
aVking
p2508
aVkind
p2509
aVb
p2510
aVmahal
p2511
aVgotten
p2512
aVcomney
p2513
aVcolin
p2514
aVriski
p2515
aVyouth
p2516
aVscar
p2517
aVgroceri
p2518
aVcost
p2519
aValwaystrump
p2520
aVnot_fraud
p2521
aVtoward
p2522
aVtrumper
p2523
aVdana
p2524
aVcleaner
p2525
aVturntexasblu
p2526
aVbourgeoi
p2527
aVatmospher
p2528
aVstrengthen
p2529
aVnot_rel
p2530
aVphilli
p2531
aVplenti
p2532
aVnot_differ
p2533
aVgala
p2534
aVnot_jumpsuit
p2535
aVcrackhead
p2536
aVwhistleblow
p2537
aVsell
p2538
aVlie
p2539
aVtyvm
p2540
aVequival
p2541
aVlil
p2542
aVself
p2543
aVviolat
p2544
aVnot_account
p2545
aVstapl
p2546
aVuntrustworthi
p2547
aVcaesar
p2548
aVpolitico
p2549
aVsinodino
p2550
aVpeoria
p2551
aVhominem
p2552
aVnot_mishandl
p2553
aVplay
p2554
aVbldng
p2555
aVserena
p2556
aVcargo
p2557
aVnot_defend
p2558
aVgoldman
p2559
aVdumptrump
p2560
aVquota
p2561
aVnot_continu
p2562
aVcrash
p2563
aVvirus
p2564
aVplan
p2565
aVsoftbal
p2566
aVnot_iv
p2567
aVnot_unpredict
p2568
aVwisdom
p2569
aVmodel
p2570
aVcharg
p2571
aVamaz
p2572
aVnot_threat
p2573
aVclear
p2574
aVnewjersey
p2575
aVpueril
p2576
aVdestruct
p2577
aVks
p2578
aVnot_til
p2579
aVnot_tim
p2580
aVwasserman
p2581
aVclean
p2582
aVtpp
p2583
aVnot_anyth
p2584
aVusual
p2585
aVfbis
p2586
aVnot_seeyouinphilli
p2587
aVawesom
p2588
aVsatir
p2589
aVugh
p2590
aVridicul
p2591
aVgold
p2592
aVsparrow
p2593
aVnot_fair
p2594
aVdelegaterevolt
p2595
aVnot_rap
p2596
aVnot_ral
p2597
aVnot_ev
p2598
aVsession
p2599
aVpalestin
p2600
aVnot_fail
p2601
aVfelon
p2602
aVfine
p2603
aVfind
p2604
aVnot_black
p2605
aVnot_rac
p2606
aVcell
p2607
aVfirewal
p2608
aVbff
p2609
aVpretti
p2610
aVyay
p2611
aVnot_bern
p2612
aVruin
p2613
aVsolut
p2614
aVnot_unless
p2615
aVscoobi
p2616
aVbetray
p2617
aVcondol
p2618
aVebolathat
p2619
aVnot_clout
p2620
aVnot_diplomaci
p2621
aVhip
p2622
aVweve
p2623
aVhit
p2624
aVunbeli
p2625
aVexposur
p2626
aVemailg
p2627
aVsecular
p2628
aVpois
p2629
aVintensifi
p2630
aVnot_wip
p2631
aVnot_go
p2632
aVnativ
p2633
aVnot_win
p2634
aVnot_proven
p2635
aVnot_sleepi
p2636
aVnot_clos
p2637
aVcompass
p2638
aVsalut
p2639
aVsilk
p2640
aVsunni
p2641
aVmerci
p2642
aVappeal
p2643
aVirrevers
p2644
aVstrictest
p2645
aVnot_bureaucrat
p2646
aVeuropean
p2647
aVenemi
p2648
aVstatist
p2649
aVivanka
p2650
aVcri
p2651
aVwifey
p2652
aVautumnnalston
p2653
aVnot_watch
p2654
aVset
p2655
aVart
p2656
aVnot_cal
p2657
aVdump
p2658
aVnot_problem
p2659
aVpetrifi
p2660
aVnot_pray
p2661
aVcelebr
p2662
aVjeffersonitopia
p2663
aVsee
p2664
aVgoudi
p2665
aVdumb
p2666
aVnot_presid
p2667
aVsea
p2668
aVsen
p2669
aVnot_cas
p2670
aVnot_car
p2671
aVarm
p2672
aVnot_charg
p2673
aVfreefal
p2674
aVnot_block
p2675
aVhorrif
p2676
aVexpert
p2677
aVwomenrul
p2678
aVabedin
p2679
aVwow
p2680
aVprosecut
p2681
aVdebat
p2682
aVnot_demograph
p2683
aVbridg
p2684
aVusa.for
p2685
aVflame
p2686
aVlazi
p2687
aVexperi
p2688
aVnope
p2689
aVkneel
p2690
aVpiss
p2691
aVdalla
p2692
aVnot_inher
p2693
aVfashionbusi
p2694
aVsold
p2695
aVsole
p2696
aVtlot
p2697
aVtrumphead
p2698
aVyork
p2699
aVsucceed
p2700
aVnot_clinton
p2701
aVnot_smear
p2702
aVnot_impress
p2703
aVpopul
p2704
aVc
p2705
aVlast
p2706
aVmega
p2707
aVnot_yet
p2708
aVthou
p2709
aVnot_within
p2710
aVparad
p2711
aVoversea
p2712
aVforeign
p2713
aVbandit
p2714
aVruleoflaw
p2715
aVrose
p2716
aVjuri
p2717
aVbond
p2718
aVwhole
p2719
aVmari
p2720
aVnot_fantasi
p2721
aVinextric
p2722
aVtrumpsterwarrior
p2723
aVnot_among
p2724
aVsimpli
p2725
aVdistress
p2726
aVpoint
p2727
aVsky
p2728
aVloan
p2729
aVconsumm
p2730
aVnot_sexu
p2731
aVaverag
p2732
aVmistak
p2733
aVnot_found
p2734
aVdeceiv
p2735
aVcommuniti
p2736
aVnot_gun
p2737
aVpr
p2738
aVdevil
p2739
aVbho
p2740
aVstamp
p2741
aVwikileak
p2742
aVsexytim
p2743
aVterritori
p2744
aVwhop
p2745
aVdue
p2746
aVzootropoli
p2747
aVwhos
p2748
aVnot_ryan
p2749
aVpc
p2750
aVsecret
p2751
aVdamn
p2752
aVunambigu
p2753
aVthreaten
p2754
aVnot_dumb
p2755
aVwhoa
p2756
aVnonexist
p2757
aVpm
p2758
aVansari
p2759
aVwish
p2760
aVchampion
p2761
aVgay
p2762
aVboy
p2763
aVfire
p2764
aVnot_def
p2765
aVimag
p2766
aVnatl
p2767
aVremark
p2768
aVnot_around
p2769
aVfund
p2770
aVjudici
p2771
aVunderstand
p2772
aVwhitney
p2773
aVdeport
p2774
aVeduc
p2775
aVstolen
p2776
aVpolitician
p2777
aVlook
p2778
aVfrozen
p2779
aVmlk
p2780
aVstraight
p2781
aVbill
p2782
aVconvo
p2783
aVrat
p2784
aVgovernor
p2785
aVkuni
p2786
aVphuck
p2787
aVunifi
p2788
aVhomework
p2789
aVbehavior
p2790
aVshift
p2791
aVfun
p2792
aVkissing
p2793
aVloot
p2794
aVnot_huh
p2795
aVeveryon
p2796
aVpack
p2797
aVhrcs
p2798
aVearli
p2799
aVnot_los
p2800
aVnot_lot
p2801
aVvoa
p2802
aVzero
p2803
aVreadi
p2804
aVnot_loy
p2805
aVnot_christian
p2806
aVdemon
p2807
aVrip
p2808
aVvot
p2809
aVnot_detent
p2810
aVvow
p2811
aVseen
p2812
aVstint
p2813
aVrig
p2814
aVfeloni
p2815
aVnot_progress
p2816
aVnot_would
p2817
aVwhiteprivileg
p2818
aVpoliticsneedspati
p2819
aVshirt
p2820
aVnot_stood
p2821
aVwaprimari
p2822
aVlowlif
p2823
aVnot_amend
p2824
aVnhood
p2825
aVewe
p2826
aVfunni
p2827
aVgrand
p2828
aVruth
p2829
aVconflict
p2830
aVhigher
p2831
aVappreci
p2832
aVselma
p2833
aVimagin
p2834
aVclimatechang
p2835
aVyesterday
p2836
aVnot_north
p2837
aValert
p2838
aVctl
p2839
aVmoment
p2840
aVrabid
p2841
aVbartlett
p2842
aVnot_gang
p2843
aVtypic
p2844
aVrecent
p2845
aVlower
p2846
aVels
p2847
aVnot_castil
p2848
aVhillarymustconced
p2849
aVkelli
p2850
aVreleasethedeleg
p2851
aVnot_ceas
p2852
aVairwav
p2853
aVgrossli
p2854
aVmaker
p2855
aVperson
p2856
aVgunfir
p2857
aVblacksfortrump
p2858
aVradic
p2859
aVsnark
p2860
aVhispan
p2861
aVtast
p2862
aVanybodi
p2863
aVpropos
p2864
aVexplan
p2865
aVcoup
p2866
aVnot_forget
p2867
aVnot_di
p2868
aVnot_racist
p2869
aVbelgium
p2870
aVshape
p2871
aVneoliberalismvsclim
p2872
aVnot_who
p2873
aVnot_attent
p2874
aVelect
p2875
aVnot_judg
p2876
aVwage
p2877
aVcut
p2878
aVnot_tragedi
p2879
aVunsecur
p2880
aValso
p2881
aVhussein
p2882
aVpillari
p2883
aVmortifi
p2884
aVcuz
p2885
aVcontractor
p2886
aVbarack
p2887
aVmoe
p2888
aVappli
p2889
aVnot_nyc
p2890
aVonlytrump
p2891
aVcomplaint
p2892
aVmarco
p2893
aVbig
p2894
aVbid
p2895
aVhanniti
p2896
aVjudgement
p2897
aVgame
p2898
aVhillaryisunqualifi
p2899
aVnot_kkk
p2900
aVcheeto
p2901
aVformal
p2902
aVknock
p2903
aVprefer
p2904
aVlost
p2905
aVthinker
p2906
aVconfront
p2907
aVstopthest
p2908
aVkillari
p2909
aVlgbtq
p2910
aVearthquak
p2911
aVheart
p2912
aVkenney
p2913
aVunfi
p2914
aVnot_correct
p2915
aVyorker
p2916
aVbaggag
p2917
aVpopular
p2918
aVdonni
p2919
aVdownstair
p2920
aVdumber
p2921
aVgopsham
p2922
aVnot_instead
p2923
aVufc
p2924
aVsue
p2925
aVacknowledg
p2926
aVdumpryan
p2927
aVback
p2928
aVimpeach
p2929
aVmartial
p2930
aVrednationris
p2931
aVsampl
p2932
aVclown
p2933
aVmirror
p2934
aVinsur
p2935
aVsurpris
p2936
aVpolitifact
p2937
aVboku
p2938
aVmaiden
p2939
aVnot_mistak
p2940
aVshall
p2941
aVrepubl
p2942
aVanno
p2943
aVpen
p2944
aVlarg
p2945
aVmarket
p2946
aVprog
p2947
aVprof
p2948
aVshenanigan
p2949
aVprod
p2950
aVnot_pressur
p2951
aVnot_untangl
p2952
aVbe
p2953
aVsixteen
p2954
aVrun
p2955
aVba
p2956
aVbc
p2957
aVdtmag
p2958
aVspecialreport
p2959
aVmartin
p2960
aVagreement
p2961
aVrud
p2962
aVkan
p2963
aVster
p2964
aVstep
p2965
aVsanta
p2966
aVbs
p2967
aVnot_martha
p2968
aVmortgag
p2969
aVhogwash
p2970
aVfaith
p2971
aVnot_lyingcrookedhillari
p2972
aVkeynot
p2973
aVnot_said
p2974
aVmateri
p2975
aVtruck
p2976
aVrevolut
p2977
aVnot_plan
p2978
aVdcprotest
p2979
aVnot_reform
p2980
aVbarnabi
p2981
aVcongressman
p2982
aVchickentrump
p2983
aVblock
p2984
aVpredat
p2985
aVdavid
p2986
aVclinton
p2987
aVgreenfield
p2988
aVprimarili
p2989
aVdesper
p2990
aVnominaterubio
p2991
aVwithin
p2992
aVrtrtrt
p2993
aVvotetrumpusa
p2994
aVbankruptci
p2995
aVjimmi
p2996
aVpatreon
p2997
aVensur
p2998
aVannounc
p2999
aVnot_constitut
p3000
aVvilifi
p3001
aVwebsit
p3002
aVforth
p3003
aVgrub
p3004
aVquestion
p3005
aVmsm
p3006
aVsubmit
p3007
aVcustom
p3008
aVinclud
p3009
aVsuit
p3010
aVforward
p3011
aVperform
p3012
aVstare
p3013
aVlarri
p3014
aVgetti
p3015
aVposter
p3016
aVnot_liar
p3017
aVahhh
p3018
aVpastor
p3019
aVnot_politician
p3020
aVhijrah
p3021
aVnewsmax
p3022
aVlink
p3023
aVconservat
p3024
aVlashley
p3025
aVrussian
p3026
aVline
p3027
aVisra
p3028
aVscream
p3029
aVpjnet
p3030
aVdoo
p3031
aVinfo
p3032
aVhair
p3033
aVcia
p3034
aVnot_familiar
p3035
aVlaptop
p3036
aVnot_purg
p3037
aVnot_hilkari
p3038
aVcaller
p3039
aVimwithyou
p3040
aVus
p3041
aVur
p3042
aVplanet
p3043
aVfdr
p3044
aVtoday
p3045
aVsongswithloweredexpect
p3046
aVsimilar
p3047
aVhornet
p3048
aVbever
p3049
aVcurv
p3050
aVuselect
p3051
aVhumanitarian
p3052
aVconstant
p3053
aVnationalist
p3054
aVnot_sourc
p3055
aVralli
p3056
aVflush
p3057
aVchao
p3058
aVlectur
p3059
aVchap
p3060
aVcure
p3061
aVimprov
p3062
aVnot_univers
p3063
aVprimaryday
p3064
aVecho
p3065
aVtheyll
p3066
aVnot_hat
p3067
aVcrip
p3068
aVtitl
p3069
aVnah
p3070
aVnot_liber
p3071
aVclub
p3072
aVnap
p3073
aVmoron
p3074
aVkleagl
p3075
aVnevercrookedhillari
p3076
aVmock
p3077
aVnice
p3078
aVnot_refuge
p3079
aVdraw
p3080
aVnot_resign
p3081
aVresign
p3082
aVnot_sup
p3083
aVwilliam
p3084
aVmissiv
p3085
aVcater
p3086
aVcdnpoli
p3087
aVdeserv
p3088
aVago
p3089
aVland
p3090
aVe
p3091
aVvice
p3092
aVdismantl
p3093
aVblend
p3094
aVage
p3095
aVnot_victori
p3096
aVshoutout
p3097
aVdiscrimin
p3098
aVbribe
p3099
aVrestor
p3100
aVfresh
p3101
aVnot_list
p3102
aVkristen
p3103
aVchrissmith
p3104
aVhello
p3105
aVessay
p3106
aVpervert
p3107
aVjason
p3108
aVexamin
p3109
aVgodwini
p3110
aVhint
p3111
aVsteve
p3112
aVge
p3113
aVgang
p3114
aVedt
p3115
aVgo
p3116
aVbait
p3117
aVflashback
p3118
aVsuperfici
p3119
aVhampshir
p3120
aVphenomenon
p3121
aVnot_dro
p3122
aVprivat
p3123
aVnypd
p3124
aVsaleswoman
p3125
aVsensit
p3126
aVaria
p3127
aVyoung
p3128
aVsend
p3129
aVsahlin
p3130
aVgaysfortrump
p3131
aVsens
p3132
aVmaryland
p3133
aVfatal
p3134
aVcruzcrew
p3135
aVsent
p3136
aVhonor
p3137
aVnot_vot
p3138
aVqueen
p3139
aVmainstream
p3140
aVnot_weak
p3141
aVnot_garland
p3142
aVnomine
p3143
aVhindus
p3144
aVwave
p3145
aVheard
p3146
aVfacebook
p3147
aVdisast
p3148
aVcypriot
p3149
aVtri
p3150
aVmillenni
p3151
aVnot_establish
p3152
aVcounterproduct
p3153
aVnot_simpson
p3154
aVgender
p3155
aVjoel
p3156
aVshock
p3157
aVmichael
p3158
aVstfu
p3159
aVfewer
p3160
aVrace
p3161
aVverdict
p3162
aVcrisisa
p3163
aVsmug
p3164
aVbarbara
p3165
aVsown
p3166
aVpleas
p3167
aVslow
p3168
aVnewhillaryconspiracytheori
p3169
aVcarter
p3170
aVnot_class
p3171
aVibd
p3172
aVguilter
p3173
aVnot_individu
p3174
aVpepper
p3175
aVnot_downright
p3176
aVjump
p3177
aVcrook
p3178
aVimmun
p3179
aVvideo
p3180
aVbooth
p3181
aVearth
p3182
aVodd
p3183
aVjudgejeanin
p3184
aVfolk
p3185
aVcompar
p3186
aVchicago
p3187
aVanthem
p3188
aVaz
p3189
aVdjt
p3190
aVaccess
p3191
aVglobalistsupremacist
p3192
aVrotten
p3193
aVindian
p3194
aVnot_enough
p3195
aVfing
p3196
aVnot_wors
p3197
aValllivesmatt
p3198
aVmtracey
p3199
aVjournal
p3200
aVtrumpmentum
p3201
aVpoverti
p3202
aVcabinet
p3203
aVdespit
p3204
aVnot_moder
p3205
aVbodi
p3206
aVquell
p3207
aVlet
p3208
aVtv
p3209
aVsafer
p3210
aVbecom
p3211
aVsinc
p3212
aVnot_writeinberni
p3213
aVsayin
p3214
aVbirther
p3215
aVgreat
p3216
aVtalent
p3217
aVnot_copi
p3218
aVnot_biggi
p3219
aVnot_african
p3220
aVgent
p3221
aVcasino
p3222
aVvacat
p3223
aVdiff
p3224
aVnot_wel
p3225
aVcrisis.vet
p3226
aVhillaryemail
p3227
aVdefeat
p3228
aVpopcorn
p3229
aVopinion
p3230
aVchang
p3231
aVgene
p3232
aVexplain
p3233
aVchanc
p3234
aVsheila
p3235
aVcontrol
p3236
aVslain
p3237
aVdanger
p3238
aVrevok
p3239
aVwin
p3240
aVfoundat
p3241
aVapt
p3242
aVrestaur
p3243
aVnot_besid
p3244
aVwit
p3245
aVbust
p3246
aVnot_feel
p3247
aVduck
p3248
aVteamtrump
p3249
aVscandal
p3250
aVcanada
p3251
aVdemocra
p3252
aVuse
p3253
aVchc
p3254
aVcrap
p3255
aVusa
p3256
aVsympath
p3257
aVnot_abduct
p3258
aVnot_bank
p3259
aVnext
p3260
aVimplic
p3261
aVdoubt
p3262
aVscariest
p3263
aVsort
p3264
aVdespic
p3265
aVnot_luck
p3266
aVbabi
p3267
aVtrait
p3268
aVexcit
p3269
aVimpress
p3270
aVjeez
p3271
aVchariti
p3272
aVtrail
p3273
aVtrain
p3274
aVprezzz
p3275
aVnot_person
p3276
aVcentral
p3277
aVleadsom
p3278
aVsoro
p3279
aVcrookedhillaryi
p3280
aVwomen
p3281
aVannoy
p3282
aVhigh
p3283
aVaccount
p3284
aVnot_long
p3285
aVnot_polic
p3286
aVf
p3287
aVsabr
p3288
aVride
p3289
aVoh
p3290
aVcrazi
p3291
aVpoliticsisdirti
p3292
aVnot_polit
p3293
aVtag
p3294
aVobvious
p3295
aVmeet
p3296
aVpotus
p3297
aVscatter
p3298
aVproof
p3299
aVemploye
p3300
aVgowdi
p3301
aVpawn
p3302
aVprochoic
p3303
aVlock
p3304
aVnot_imwithh
p3305
aVtax
p3306
aVtad
p3307
aVtyron
p3308
aVcondescend
p3309
aVtab
p3310
aVsought
p3311
aVnot_leftist
p3312
aVcrimin
p3313
aVserial
p3314
aVrape
p3315
aVtak
p3316
aVfootag
p3317
aVnot_may
p3318
aVdallaspoliceshoot
p3319
aVlame
p3320
aVsix
p3321
aVdegre
p3322
aVgeorg
p3323
aVnot_mak
p3324
aVwhiteprivlagemean
p3325
aVnot_man
p3326
aVdemocraci
p3327
aVdissolv
p3328
aVhag
p3329
aVfam
p3330
aVnot_fault
p3331
aValtonsterl
p3332
aVsin
p3333
aVstock
p3334
aVtension
p3335
aVperjuri
p3336
aVlikewis
p3337
aVprolif
p3338
aVattend
p3339
aVsir
p3340
aVstop
p3341
aVroam
p3342
aVdifferenti
p3343
aVnot_stop
p3344
aVexemplifi
p3345
aVfart
p3346
aVnot_stol
p3347
aVnot_react
p3348
aVethnic
p3349
aVmultipl
p3350
aVbtfo
p3351
aVpoliticstakesthelongview
p3352
aVrental
p3353
aVvillag
p3354
aVwitchhunt
p3355
aVissa
p3356
aVnanci
p3357
aVbing
p3358
aVsit
p3359
aVelement
p3360
aVissu
p3361
aVhampsh
p3362
aVchief
p3363
aVungrat
p3364
aVwwii
p3365
aVagenda
p3366
aVcattl
p3367
aVlobbi
p3368
aVop
p3369
aVtrumpism
p3370
aVnot_necessarili
p3371
aVnot_ban
p3372
aVhandcuffhillari
p3373
aVexposehillari
p3374
aVmovi
p3375
aVnot_bad
p3376
aVmove
p3377
aVdisarm
p3378
aVhorni
p3379
aVnot_testifi
p3380
aVbacklogs.our
p3381
aVfutt
p3382
aVnot_jesus
p3383
aVuneth
p3384
aVcommi
p3385
aVbunch
p3386
aVperfect
p3387
aVdelay
p3388
aVtill
p3389
aVln
p3390
aVfeminazi
p3391
aVglenn
p3392
aVlabor
p3393
aVlt
p3394
aVblatant
p3395
aVnot_gotta
p3396
aVpurg
p3397
aVdad
p3398
aVprosper
p3399
aVnot_clean
p3400
aVscotus
p3401
aVhandl
p3402
aVauto
p3403
aVnot_scari
p3404
aVobv
p3405
aVlaunder
p3406
aVmention
p3407
aVsnake
p3408
aVkiss
p3409
aVnot_hillbot
p3410
aVfront
p3411
aVrepublican
p3412
aVwig
p3413
aVday
p3414
aVbetti
p3415
aVanyth
p3416
aVnot_seem
p3417
aVnot_mag
p3418
aVnot_seen
p3419
aVimwith
p3420
aVastrolog
p3421
aVnot_kind
p3422
aVcarolanneknapp
p3423
aVquest
p3424
aVtruth
p3425
aVdisregard
p3426
aVmilakuni
p3427
aVsil
p3428
aVaskthegay
p3429
aVnot_solv
p3430
aVupward
p3431
aVsocieti
p3432
aVarkansa
p3433
aVnot_amount
p3434
aVstrip
p3435
aVelus
p3436
aVyouv
p3437
aVsalesman
p3438
aVdumptrumptodefeathillari
p3439
aVspecial
p3440
aVnot_day
p3441
aVsentiment
p3442
aVincompet
p3443
aVnhpo
p3444
aVrep
p3445
aVrev
p3446
aVfathom
p3447
aVret
p3448
aVnot_american
p3449
aVmay
p3450
aVactivist
p3451
aVrap
p3452
aVnot_honest
p3453
aVwick
p3454
aVstun
p3455
aVdefens
p3456
aVred
p3457
aVwhitehous
p3458
aVnot_pant
p3459
aVfranc
p3460
aVshut
p3461
aVpayrol
p3462
aVinsid
p3463
aVfrank
p3464
aVmanipul
p3465
aVnot_smallest
p3466
aVnot_kil
p3467
aVnot_reassur
p3468
aVadvisor
p3469
aVreleas
p3470
aVembarrass
p3471
aVbleed
p3472
aVgreedi
p3473
aVnot_taken
p3474
aVg
p3475
aVherman
p3476
aVcould
p3477
aVwakeupamerica
p3478
aVtoscrew
p3479
aVkeep
p3480
aVscari
p3481
aVshred
p3482
aVnot_th
p3483
aVoutsid
p3484
aVpresid
p3485
aVnot_even
p3486
aVscare
p3487
aVsouth
p3488
aVendors
p3489
aVfinest
p3490
aVfiness
p3491
aVburhanwani
p3492
aVnot_sa
p3493
aVqualiti
p3494
aVsach
p3495
aVracism
p3496
aVwhoop
p3497
aVhillarymustcon
p3498
aVars
p3499
aVpuppet
p3500
aVsacr
p3501
aVowner
p3502
aVrealclearpolit
p3503
aVnot_hateit
p3504
aVscent
p3505
aVnot_anonym
p3506
aVprank
p3507
aVprioriti
p3508
aVhawk
p3509
aVswept
p3510
aVrepublicrat
p3511
aVpickmerkley
p3512
aVpaulmirengoff
p3513
aVnot_poop
p3514
aVsystem
p3515
aVrasmussen
p3516
aVattach
p3517
aVattack
p3518
aVnot_speak
p3519
aVdrool
p3520
aVhilari
p3521
aVnot_militari
p3522
aVbenghazi
p3523
aVshell
p3524
aVstomach
p3525
aVgear
p3526
aVgreta
p3527
aVpunish
p3528
aVjuli
p3529
aVwsjm
p3530
aVnot_neo
p3531
aVgrandpa
p3532
aVnot_platform
p3533
aVessenti
p3534
aVreaffirm
p3535
aVbotox
p3536
aVgeorgi
p3537
aVnot_publ
p3538
aVlovefest
p3539
aVbodyguard
p3540
aVyrs
p3541
aVben
p3542
aVnot_equ
p3543
aVnot_lynch
p3544
aVbeg
p3545
aVbed
p3546
aVcharact
p3547
aVdiscolor
p3548
aVsweden
p3549
aVlover
p3550
aVnot_suff
p3551
aVmarkeec
p3552
aVbet
p3553
aVdrunk
p3554
aVnot_last
p3555
aVxenophobia
p3556
aVclip
p3557
aVterribl
p3558
aVnot_preempt
p3559
aVjulian
p3560
aVtonight
p3561
aVfail
p3562
aVimmigr
p3563
aVcongression
p3564
aVneed
p3565
aVst
p3566
aVborder
p3567
aVnot_armi
p3568
aVhillno
p3569
aVheroic
p3570
aVscrew
p3571
aVafraid
p3572
aVnot_trumptrain
p3573
aVmesseng
p3574
aVcleveland
p3575
aVpopulist
p3576
aVretweet
p3577
aVnot_target
p3578
aVlatina
p3579
aVtactic
p3580
aVhs
p3581
aVcyberwar
p3582
aVcombin
p3583
aVdivert
p3584
aVmartha
p3585
aVdivers
p3586
aVsingl
p3587
aVnot_plush
p3588
aVcourtesi
p3589
aVcandidaci
p3590
aVunless
p3591
aVallow
p3592
aVclash
p3593
aValton
p3594
aVdeplor
p3595
aVdiscov
p3596
aVlmaooo
p3597
aVnot_notic
p3598
aVdemocr
p3599
aVreboot
p3600
aVht
p3601
aVkkks
p3602
aVyiannopoulo
p3603
aVamplifi
p3604
aVtranscript
p3605
aVclass
p3606
aVnot_pation
p3607
aVsaracohennyc
p3608
aVconsist
p3609
aVnot_support
p3610
aVinstig
p3611
aVnot_actu
p3612
aVupset
p3613
aVuri
p3614
aVface
p3615
aVinde
p3616
aVnot_team
p3617
aVdeni
p3618
aVse
p3619
aVfiasco
p3620
aVbusinessman
p3621
aVindi
p3622
aVsometh
p3623
aVfact
p3624
aVnot_strong
p3625
aVaffair
p3626
aVhuuug
p3627
aVhouston
p3628
aVnot_domin
p3629
aVnot_children
p3630
aVhollandais
p3631
aVoblahblah
p3632
aVnot_appli
p3633
aVbring
p3634
aVbiker
p3635
aVtraitor
p3636
aVclearanc
p3637
aVfear
p3638
aVnot_untrustworthi
p3639
aVtexa
p3640
aVstaff
p3641
aVpodcast
p3642
aVtire
p3643
aVmud
p3644
aVhumor
p3645
aVwinner
p3646
aVforev
p3647
aVretiremcc
p3648
aVmanufactur
p3649
aVfreeload
p3650
aVjam
p3651
aVsuppos
p3652
aVhd
p3653
aVfuel
p3654
aVlocal
p3655
aVhope
p3656
aVmeant
p3657
aVpee
p3658
aVcube
p3659
aVbeat
p3660
aVfamiliar
p3661
aVmichigan
p3662
aVnot_object
p3663
aVdisagre
p3664
aVtripl
p3665
aVlocknload
p3666
aVincreas
p3667
aVhandgun
p3668
aVfeelthebern
p3669
aVnot_held
p3670
aVenabl
p3671
aVorgan
p3672
aVnot_gorg
p3673
aVnot_catastroph
p3674
aVnot_nehlen
p3675
aVstanford
p3676
aVdisney
p3677
aVdevast
p3678
aVaec
p3679
aVstuff
p3680
aVintegr
p3681
aVtrump.tan
p3682
aVnot_help
p3683
aVohio
p3684
aVgrab
p3685
aVview
p3686
aVmadam
p3687
aVbtw
p3688
aVlegaci
p3689
aVbts
p3690
aVexpel
p3691
aVcredibl
p3692
aVdeathpenalti
p3693
aVshake
p3694
aVapolog
p3695
aVflip
p3696
aVnot_orang
p3697
aVkorea
p3698
aVracket
p3699
aVbomb
p3700
aVnot_soul
p3701
aVcloser
p3702
aVdungeon
p3703
aVentranc
p3704
aVwire
p3705
aVsuperhero
p3706
aVreform
p3707
aVnot_us
p3708
aVnot_pract
p3709
aVindoctrin
p3710
aVthumb
p3711
aVtend
p3712
aVgenius
p3713
aVstate
p3714
aVtens
p3715
aVprogress
p3716
aVwarren
p3717
aVnot_ug
p3718
aVemail
p3719
aVbought
p3720
aVtrumpeffect
p3721
aVnot_vis
p3722
aVpatholog
p3723
aVamen
p3724
aVeagleval
p3725
aVdislik
p3726
aVbemoan
p3727
aVnot_via
p3728
aVjob
p3729
aVentir
p3730
aVjoe
p3731
aVkey
p3732
aVuseless
p3733
aVmaga
p3734
aVamer
p3735
aVlawsuit
p3736
aVnot_week
p3737
aVnot_afford
p3738
aVaddit
p3739
aVnot_eld
p3740
aVheartwarm
p3741
aVadmin
p3742
aVjoke
p3743
aVnot_viol
p3744
aVnot_prison
p3745
aVnot_exist
p3746
aVtrumpi
p3747
aVmiscarrag
p3748
aVetc
p3749
aVadmit
p3750
aVcongrat
p3751
aVnot_near
p3752
aVcommitte
p3753
aVnot_els
p3754
aVswim
p3755
aVswallow
p3756
aVcomment
p3757
aVnot_overstep
p3758
aVco
p3759
aVauthor
p3760
aVcl
p3761
aVwall
p3762
aVtuesday
p3763
aVnot_pledg
p3764
aVourrevolut
p3765
aVwalk
p3766
aVwalt
p3767
aVindict
p3768
aVdenis
p3769
aVlaugh
p3770
aVtoler
p3771
aVrespect
p3772
aVli
p3773
aVnot_regul
p3774
aVworldnew
p3775
aVscanner
p3776
aVquit
p3777
aVnot_desir
p3778
aVnot_knif
p3779
aVag
p3780
aVdecent
p3781
aVquotat
p3782
aVdarrel
p3783
aVobstacl
p3784
aVfrack
p3785
aVpoliticsneedsthelongview
p3786
aVtreat
p3787
aVgaza
p3788
aVnot_americafirst
p3789
aVcurtain
p3790
aVbuggest
p3791
aVdemplatfo
p3792
aVorprimari
p3793
aVnot_consci
p3794
aVfarmer
p3795
aVcos
p3796
aVmanchurian
p3797
aVnot_wast
p3798
aVridden
p3799
aVcor
p3800
aVtogeth
p3801
aVbull
p3802
aVador
p3803
aVgeneral
p3804
aVshameless
p3805
aVreplic
p3806
aVmain
p3807
aVnot_much
p3808
aVnd
p3809
aVnutjob
p3810
aVdefin
p3811
aVsuport
p3812
aVfault
p3813
aVultra
p3814
aVnot_rate
p3815
aVva
p3816
aVlayer
p3817
aVnot_quest
p3818
aVsalma
p3819
aValmost
p3820
aVdissent
p3821
aVdelusion
p3822
aVnot_paul
p3823
aVcuss
p3824
aVvp
p3825
aVnot_nanook
p3826
aVvs
p3827
aVmotiv
p3828
aVfiddl
p3829
aVpartner
p3830
aVrevit
p3831
aVwisconsinpol
p3832
aVgreater
p3833
aVuniti
p3834
aVterrorist
p3835
aVnot_fascist
p3836
aVwelcom
p3837
aVparti
p3838
aVbegan
p3839
aVcivilian
p3840
aVmember
p3841
aVspeaker
p3842
aVyoungdem
p3843
aVmisogynist
p3844
aVoutbreak
p3845
aVinc
p3846
aVphylli
p3847
aVpaula
p3848
aVdifficult
p3849
aVnot_supremacist
p3850
aVprais
p3851
aVkiller
p3852
aVhttp
p3853
aVmoyer
p3854
aVnot_ment
p3855
aVnot_attack
p3856
aVinterrog
p3857
aVbald
p3858
aVupon
p3859
aVeffect
p3860
aVferguson
p3861
aVbreakthefound
p3862
aVimwithh
p3863
aVoptrump
p3864
aVstudent
p3865
aVarticle.http
p3866
aVbuild
p3867
aVgiuliani
p3868
aVfeelin
p3869
aVjudgment
p3870
aVnot_becom
p3871
aVnot_philando
p3872
aVnot_hack
p3873
aVnot_im
p3874
aVcenter
p3875
aVnot_reg
p3876
aVcolour
p3877
aVrecial
p3878
aVwell
p3879
aVthought
p3880
aVvet
p3881
aVexampl
p3882
aVcommand
p3883
aVchina
p3884
aVchoos
p3885
aVsedgwick
p3886
aVnot_it
p3887
aVlatest
p3888
aVnot_arrest
p3889
aVkkk
p3890
aVless
p3891
aVhalf
p3892
aVgun
p3893
aVselect
p3894
aVnot_rep
p3895
aVsurpass
p3896
aVmfw
p3897
aVxsts
p3898
aVpaul
p3899
aVelector
p3900
aVnov
p3901
aVdemograph
p3902
aVweb
p3903
aVpanther
p3904
aVflee
p3905
aVjeff
p3906
aVsmith
p3907
aVarrest
p3908
aVadd
p3909
aVbook
p3910
aVnato
p3911
aVprotecti
p3912
aVcrack
p3913
aVtwoosh
p3914
aVwarrant
p3915
aVimparti
p3916
aVsmart
p3917
aVboom
p3918
aVnot_unfollow
p3919
aVpresi
p3920
aVnot_hid
p3921
aVrememb
p3922
aVnot_stir
p3923
aVbillionair
p3924
aVnot_term
p3925
aVhaut
p3926
aVpiec
p3927
aVimuglybut
p3928
aVoregonstandoff
p3929
aVcruz
p3930
aVrealiz
p3931
aVfive
p3932
aVknow
p3933
aVunseen
p3934
aVpress
p3935
aVnot_women
p3936
aVjudiciari
p3937
aVnot_pleas
p3938
aVloss
p3939
aVlincoln
p3940
aVnot_countri
p3941
aVstif
p3942
aVlike
p3943
aVsuccess
p3944
aVincred
p3945
aVmiami
p3946
aVcorpor
p3947
aVloser
p3948
aVtalkin
p3949
aVmaneuv
p3950
aVnot_someon
p3951
aVnecessari
p3952
aVjournalist
p3953
aVheed
p3954
aVlose
p3955
aVbigotri
p3956
aVpage
p3957
aVhangov
p3958
aVshed
p3959
aVrevers
p3960
aVgoodnightpatriot
p3961
aVmohr
p3962
aVnot_toobigtojail
p3963
aVtwitter
p3964
aVflagrant
p3965
aVphenomena
p3966
aVhail
p3967
aVcertain
p3968
aVbatteri
p3969
aVhondura
p3970
aVgrowth
p3971
aVtheolog
p3972
aVshes
p3973
aVelitist
p3974
aVproper
p3975
aVhome
p3976
aVnot_murd
p3977
aVnewsbust
p3978
aVlibrari
p3979
aVnot_confisc
p3980
aVsepar
p3981
aVfeder
p3982
aVlead
p3983
aVesp
p3984
aVleak
p3985
aVnot_know
p3986
aVlean
p3987
aVnot_gop
p3988
aVnot_gon
p3989
aVleap
p3990
aVestim
p3991
aVleav
p3992
aVnot_left
p3993
aVnot_god
p3994
aVnot_incit
p3995
aVleader
p3996
aVcreep
p3997
aVnot_centur
p3998
aVenuf
p3999
aVbolster
p4000
aVencourag
p4001
aVinvestig
p4002
aVcrookedhillari
p4003
aVmouth
p4004
aVinprimari
p4005
aVimaginari
p4006
aVrock
p4007
aVnot_spam
p4008
aVcomcast
p4009
aVar
p4010
aVmasteri
p4011
aVhost
p4012
aVracebait
p4013
aVclintonemail
p4014
aVrefuge
p4015
aVnot_treat
p4016
aVthrone
p4017
aVnegat
p4018
aVsister
p4019
aVnot_pelt
p4020
aVactual
p4021
aVjustic
p4022
aVfreedom
p4023
aVnot_ambush
p4024
aVredstat
p4025
aVemaildistractor
p4026
aVnot_sinc
p4027
aVcommerci
p4028
aVfacism
p4029
aVfedalei
p4030
aVpool
p4031
aVtheyr
p4032
aVown
p4033
aVfinal
p4034
aVjubile
p4035
aVowe
p4036
aVsemit
p4037
aVwashington
p4038
aVpolitc
p4039
aVguard
p4040
aVnot_littl
p4041
aVempti
p4042
aVallnew
p4043
aVcouldnt
p4044
aVmere
p4045
aVwalsch
p4046
aVsander
p4047
aVwaikiki
p4048
aVcarbon
p4049
aVpictur
p4050
aVnot_law
p4051
aVnot_lat
p4052
aVnot_distract
p4053
aVdelegatesunbound
p4054
aVintellig
p4055
aVnot_electionfraud
p4056
aVappl
p4057
aVjoshvoorhe
p4058
aVreplac
p4059
aVbiggest
p4060
aVnot_buy
p4061
aVgut
p4062
aVsgp
p4063
aVflynn
p4064
aVfavorit
p4065
aVfunction
p4066
aVdemdeb
p4067
aVbuy
p4068
aVnorth
p4069
aVwvprimari
p4070
aVnot_tpp
p4071
aVbrand
p4072
aVhq
p4073
aVliarhillari
p4074
aVcontinu
p4075
aVnot_human
p4076
aVneutral
p4077
aVhi
p4078
aVgain
p4079
aVnot_real
p4080
aVnot_tax
p4081
aVhc
p4082
aVeas
p4083
aVha
p4084
aVnra
p4085
aVeat
p4086
aVnot_read
p4087
aVcount
p4088
aVlynn
p4089
aVmade
p4090
aVnot_fundrais
p4091
aVdisplac
p4092
aVwhether
p4093
aVcongresswoman
p4094
aVpoliticsisfrustr
p4095
aVj
p4096
aVnot_work
p4097
aVdistract
p4098
aVnot_month
p4099
aVrecord
p4100
aVlimit
p4101
aVwoke
p4102
aVproblem
p4103
aVstrategi
p4104
aVsponsor
p4105
aVinstead
p4106
aVirish
p4107
aVcmon
p4108
aVblacklivesmatt
p4109
aVkany
p4110
aVromney
p4111
aVpie
p4112
aVgatesvill
p4113
aVpig
p4114
aVtwist
p4115
aVnovemb
p4116
aVinn
p4117
aVimplement
p4118
aVet
p4119
aVretiremccain
p4120
aVpit
p4121
aVcampus
p4122
aVprobabl
p4123
aVrapeuge
p4124
aVdiplomat
p4125
aVnot_ni
p4126
aVnot_fal
p4127
aVquot
p4128
aVnot_fan
p4129
aVnot_trump
p4130
aVsharia
p4131
aVsexual
p4132
aVnot_fac
p4133
aVpercent
p4134
aVdetail
p4135
aVnot_ne
p4136
aVother
p4137
aVfutur
p4138
aVsick
p4139
aVinfect
p4140
aVhuckabe
p4141
aVmass
p4142
aVnot_far
p4143
aVwing
p4144
aVnot_speci
p4145
aVreckless
p4146
aVpension
p4147
aVtroll
p4148
aVstar
p4149
aVmonday
p4150
aVjune
p4151
aVclift
p4152
aVstay
p4153
aVdropouthillari
p4154
aVdozoretz
p4155
aVstab
p4156
aVnot_build
p4157
aVebolaradioact
p4158
aVyell
p4159
aVtan
p4160
aVfoia
p4161
aVappoint
p4162
aVsheswithus
p4163
aVnevertrump
p4164
aVmassacr
p4165
aVgarcia
p4166
aVatheist
p4167
aVnot_nomine
p4168
aVnot_crybabi
p4169
aVrule
p4170
aVassassin
p4171
aVkentucki
p4172
aVnot_agre
p4173
aVsnif
p4174
aVconfess
p4175
a.