(lp0
Vliar
p1
aVlack
p2
aVsignific
p3
aVgo
p4
aVhate
p5
aVchildren
p6
aVprivat
p7
aVvoter
p8
aVyoung
p9
aVd-fla
p10
aViraqi
p11
aVbuddi
p12
aVsens
p13
aVfatal
p14
aVworth
p15
aVsent
p16
aVbrown
p17
aVwoman
p18
aVgovern
p19
aVexact
p20
aVtri
p21
aVadministr
p22
aVmichael
p23
aVbrother
p24
aVmonsanto
p25
aVq
p26
aVcooki
p27
aVguy
p28
aVyall
p29
aVpleas
p30
aVprevent
p31
aVbravo
p32
aVted
p33
aVcrook
p34
aVnarrat
p35
aVstreet
p36
aVvideo
p37
aVrapist
p38
aVappear
p39
aVabt
p40
aVindiffer
p41
aVinjustic
p42
aVboost
p43
aVpublic
p44
aVtold
p45
aVfull
p46
aVhero
p47
aVelect
p48
aVmen
p49
aVentertain
p50
aVjuri
p51
aVaddress
p52
aValong
p53
aViraq
p54
aVvalu
p55
aVmilitar
p56
aVbox
p57
aVboo
p58
aVchang
p59
aVtheori
p60
aVvia
p61
aVlove
p62
aVcampaign
p63
aVdanger
p64
aVwin
p65
aVfoundat
p66
aVput
p67
aVsterl
p68
aVfamili
p69
aVfbi
p70
aVaggress
p71
aVuse
p72
aVpalestinian
p73
aVliber
p74
aVhudson
p75
aVlive
p76
aVcall
p77
aVhttps
p78
aVblack
p79
aVtell
p80
aVflaw
p81
aVafford
p82
aVanti-gun
p83
aVsubtweet
p84
aVreign
p85
aVchariti
p86
aVsoro
p87
aVeffort
p88
aVmust
p89
aVshoot
p90
aVnone
p91
aVjoin
p92
aVroom
p93
aVhour
p94
aVwork
p95
aVjudg
p96
aVhistori
p97
aVdem
p98
aVpurpos
p99
aVscam
p100
aVgive
p101
aVpredict
p102
aVmethodist
p103
aVdeath
p104
aVwant
p105
aVrig
p106
aVphrase
p107
aVcrimin
p108
aVoccup
p109
aVend
p110
aVquot
p111
aVpolic
p112
aVanoth
p113
aVamerican
p114
aVclassifi
p115
aVgeorg
p116
aVreject
p117
aVsin
p118
aVvicious
p119
aVlab
p120
aVbreitbart
p121
aVblood
p122
aVcourt
p123
aVlaw
p124
aVdemonstr
p125
aVdomin
p126
aVdivid
p127
aVoffens
p128
aVissu
p129
aVpreced
p130
aVjail
p131
aVafrican
p132
aVtalk
p133
aVbull
p134
aVmove
p135
aVbcuz
p136
aVsuffer
p137
aVthank
p138
aVpray
p139
aVfix
p140
aVgluten-fre
p141
aVli
p142
aVlyin
p143
aVfully-load
p144
aVhypocrisi
p145
aVmail
p146
aVcridlin
p147
aVrat
p148
aVnon
p149
aVgood
p150
aVbreak
p151
aVbigger
p152
aVwont
p153
aVanyth
p154
aVdrop
p155
aVcareless
p156
aVtruth
p157
aVside
p158
aVlie
p159
aVmental
p160
aVlist
p161
aVidea
p162
aVdemocrat
p163
aVvote
p164
aVexpect
p165
aVyear
p166
aVhappen
p167
aVex-doj
p168
aVrt
p169
aVaccomplish
p170
aVsuprem
p171
aVgod
p172
aVnewli
p173
aVlaid
p174
aVstupid
p175
aVhealth
p176
aVdefens
p177
aVclarifi
p178
aVmonster
p179
aVmillion
p180
aVargu
p181
aVfree
p182
aVsomeon
p183
aVbase
p184
aVbeliev
p185
aVreleas
p186
aVcard
p187
aVcare
p188
aVcould
p189
aVask
p190
aVtoscrew
p191
aVkeep
p192
aVisi
p193
aVw
p194
aVpresid
p195
aVsubtl
p196
aVthink
p197
aVfeed
p198
aVendors
p199
aVmajor
p200
aVcarri
p201
aVone
p202
aVelder
p203
aValreadi
p204
aVsubmit
p205
aVoppos
p206
aVdiffer
p207
aVtop
p208
aVjeb
p209
aVwhite
p210
aVscheme
p211
aVhillari
p212
aVoption
p213
aVtook
p214
aVpart
p215
aVpro-hillari
p216
aVnobodi
p217
aVobama
p218
aVprovid
p219
aVbee
p220
aVtrey
p221
aVmatter
p222
aVwiesel
p223
aVtoward
p224
aVoath
p225
aVbet
p226
aVportsmouth
p227
aVsay
p228
aVslam
p229
aVdeliv
p230
aVseek
p231
aVscrew
p232
aVretweet
p233
aVberni
p234
aVsinodino
p235
aVdestroy
p236
aVnoth
p237
aValton
p238
aVmarin
p239
aVplan
p240
aVcoin
p241
aVclass
p242
aVcharg
p243
aVshalt
p244
aVdoj
p245
aVhumanitarian
p246
aVcorrin
p247
aVfact
p248
aVopposit
p249
aVsexism
p250
aVeconomist
p251
aVinvolv
p252
aVabsolut
p253
aVisra
p254
aVrecord-ti
p255
aVtire
p256
aVsugar
p257
aVsuppos
p258
aVrich
p259
aVhope
p260
aVunbeli
p261
aVget
p262
aVmade
p263
aVnew
p264
aVhandgun
p265
aVh
p266
aVbag
p267
aVbad
p268
aVerupt
p269
aVhusband
p270
aVlegaci
p271
aVhuman
p272
aVoverwhelm
p273
aVdillard
p274
aVsee
p275
aVus
p276
aVcorrupt
p277
aVprogress
p278
aVarm
p279
aVwire
p280
aVreform
p281
aVwow
p282
aVuntrustworthi
p283
aVstate
p284
aVimport
p285
aVemail
p286
aVdalla
p287
aVwh
p288
aVblame
p289
aVhateit
p290
aVentir
p291
aVnews
p292
aVcome
p293
aVcop
p294
aVcos
p295
aVcycl
p296
aVcareer
p297
aVre-investig
p298
aVcolumnist
p299
aVcomey
p300
aVlet
p301
aVpoint
p302
aVwall
p303
aVexcept
p304
aVars
p305
aVindict
p306
aVcolon
p307
aVpoll
p308
aVcoloni
p309
aVdeceiv
p310
aVcommuniti
p311
aVbetter
p312
aVdevil
p313
aVthree
p314
aVfrack
p315
aVgaza
p316
aVcurtain
p317
aVpm
p318
aVlife
p319
aVfire
p320
aVfund
p321
aVcatastroph
p322
aVwake
p323
aVtogeth
p324
aVchild
p325
aVvotin
p326
aVcase
p327
aVtank
p328
aVanti-israel
p329
aVamend
p330
aVservic
p331
aVhistor
p332
aVair
p333
aVthou
p334
aVcannot
p335
aVscriptur
p336
aVeveryon
p337
aVpack
p338
aVreadi
p339
aVbros
p340
aVvot
p341
aVkenya
p342
aVparti
p343
aVmake
p344
aVmember
p345
aVcongrat
p346
aVspeech
p347
aVgrand
p348
aVcomplet
p349
aVprais
p350
aVimagin
p351
aVdefeat
p352
aVeffect
p353
aVhand
p354
aVkoch
p355
aVkid
p356
aVkept
p357
aVcenter
p358
aVthought
p359
aVviolenc
p360
aVless
p361
aVmoney
p362
aVgun
p363
aVkill
p364
aVvictim
p365
aVop-
p366
aVeli
p367
aVexpos
p368
aValso
p369
aVcuz
p370
aVbarack
p371
aVarrest
p372
aVsave
p373
aVread
p374
aVdonat
p375
aVgonna
p376
aVregim
p377
aVknow
p378
aVgovt
p379
aVmob
p380
aVlike
p381
aVpage
p382
aVcentur
p383
aVobstruct
p384
aVattorney
p385
aVacknowledg
p386
aVtwitter
p387
aVback
p388
aVimpeach
p389
aVhondura
p390
aVracial
p391
aVtrust
p392
aVconfirm
p393
aVbe
p394
aVrun
p395
aVpower
p396
aVgarbag
p397
aVrud
p398
aVpromot
p399
aVrefuge
p400
aVcentral
p401
aVoh
p402
aVjustic
p403
aVsmear
p404
aVcontamin
p405
aVstand
p406
aVneighbor
p407
aVdoubl
p408
aVclinton
p409
aVdepart
p410
aVowe
p411
aVppl
p412
aVmere
p413
aVmerg
p414
aVsander
p415
aVamerica
p416
aVsupport
p417
aVphiladelphia
p418
aVlol
p419
aVstrong
p420
aVreplac
p421
aVbiggest
p422
aVgetti
p423
aVforc
p424
aVhs
p425
aVbrand
p426
aVhq
p427
aVpastor
p428
aVhear
p429
aVgain
p430
aVe
p431
aVrealli
p432
aVtrue
p433
aVcount
p434
aVpull
p435
aVfraud
p436
aVcongresswoman
p437
aVdaddi
p438
aVdistract
p439
aVur
p440
aVproblem
p441
aVgone
p442
aVcreat
p443
aVfellow
p444
aVap
p445
aVchap
p446
aVpit
p447
aVcheck
p448
aVtitl
p449
aVpeopl
p450
aVreckless
p451
aVcongress
p452
aVstay
p453
aVrw
p454
aVmuslim
p455
aVstoke
p456
aVdeserv
p457
aVappoint
p458
aVfemal
p459
aVnevertrump
p460
aVu
p461
aVtime
p462
aVrep
p463
a.